ARM GAS  C:\Users\vladk\AppData\Local\Temp\ccvvBoWu.s 			page 1


   1              		.cpu cortex-m3
   2              		.eabi_attribute 20, 1
   3              		.eabi_attribute 21, 1
   4              		.eabi_attribute 23, 3
   5              		.eabi_attribute 24, 1
   6              		.eabi_attribute 25, 1
   7              		.eabi_attribute 26, 1
   8              		.eabi_attribute 30, 1
   9              		.eabi_attribute 34, 1
  10              		.eabi_attribute 18, 4
  11              		.file	"main.c"
  12              		.text
  13              	.Ltext0:
  14              		.cfi_sections	.debug_frame
  15              		.section	.text.MX_GPIO_Init,"ax",%progbits
  16              		.align	1
  17              		.arch armv7-m
  18              		.syntax unified
  19              		.thumb
  20              		.thumb_func
  21              		.fpu softvfp
  23              	MX_GPIO_Init:
  24              	.LFB69:
  25              		.file 1 "Core/Src/main.c"
   1:Core/Src/main.c **** /* USER CODE BEGIN Header */
   2:Core/Src/main.c **** /**
   3:Core/Src/main.c ****   ******************************************************************************
   4:Core/Src/main.c ****   * @file           : main.c
   5:Core/Src/main.c ****   * @brief          : Main program body
   6:Core/Src/main.c ****   ******************************************************************************
   7:Core/Src/main.c ****   * @attention
   8:Core/Src/main.c ****   *
   9:Core/Src/main.c ****   * Copyright (c) 2023 STMicroelectronics.
  10:Core/Src/main.c ****   * All rights reserved.
  11:Core/Src/main.c ****   *
  12:Core/Src/main.c ****   * This software is licensed under terms that can be found in the LICENSE file
  13:Core/Src/main.c ****   * in the root directory of this software component.
  14:Core/Src/main.c ****   * If no LICENSE file comes with this software, it is provided AS-IS.
  15:Core/Src/main.c ****   *
  16:Core/Src/main.c ****   ******************************************************************************
  17:Core/Src/main.c ****   */
  18:Core/Src/main.c **** /* USER CODE END Header */
  19:Core/Src/main.c **** /* Includes ------------------------------------------------------------------*/
  20:Core/Src/main.c **** #include "main.h"
  21:Core/Src/main.c **** 
  22:Core/Src/main.c **** /* Private includes ----------------------------------------------------------*/
  23:Core/Src/main.c **** /* USER CODE BEGIN Includes */
  24:Core/Src/main.c **** #include "sx126x.h"
  25:Core/Src/main.c **** /* USER CODE END Includes */
  26:Core/Src/main.c **** 
  27:Core/Src/main.c **** /* Private typedef -----------------------------------------------------------*/
  28:Core/Src/main.c **** /* USER CODE BEGIN PTD */
  29:Core/Src/main.c **** 
  30:Core/Src/main.c **** /* USER CODE END PTD */
  31:Core/Src/main.c **** 
  32:Core/Src/main.c **** /* Private define ------------------------------------------------------------*/
  33:Core/Src/main.c **** /* USER CODE BEGIN PD */
ARM GAS  C:\Users\vladk\AppData\Local\Temp\ccvvBoWu.s 			page 2


  34:Core/Src/main.c **** /* USER CODE END PD */
  35:Core/Src/main.c **** 
  36:Core/Src/main.c **** /* Private macro -------------------------------------------------------------*/
  37:Core/Src/main.c **** /* USER CODE BEGIN PM */
  38:Core/Src/main.c **** 
  39:Core/Src/main.c **** /* USER CODE END PM */
  40:Core/Src/main.c **** 
  41:Core/Src/main.c **** /* Private variables ---------------------------------------------------------*/
  42:Core/Src/main.c **** SPI_HandleTypeDef hspi1;
  43:Core/Src/main.c **** 
  44:Core/Src/main.c **** TIM_HandleTypeDef htim2;
  45:Core/Src/main.c **** 
  46:Core/Src/main.c **** /* USER CODE BEGIN PV */
  47:Core/Src/main.c **** sx126x_cfg modem;
  48:Core/Src/main.c **** /* USER CODE END PV */
  49:Core/Src/main.c **** 
  50:Core/Src/main.c **** /* Private function prototypes -----------------------------------------------*/
  51:Core/Src/main.c **** void SystemClock_Config(void);
  52:Core/Src/main.c **** static void MX_GPIO_Init(void);
  53:Core/Src/main.c **** static void MX_SPI1_Init(void);
  54:Core/Src/main.c **** static void MX_TIM2_Init(void);
  55:Core/Src/main.c **** void LoRa_Init(void);
  56:Core/Src/main.c **** /* USER CODE BEGIN PFP */
  57:Core/Src/main.c **** 
  58:Core/Src/main.c **** /* USER CODE END PFP */
  59:Core/Src/main.c **** 
  60:Core/Src/main.c **** /* Private user code ---------------------------------------------------------*/
  61:Core/Src/main.c **** /* USER CODE BEGIN 0 */
  62:Core/Src/main.c **** 
  63:Core/Src/main.c **** /* USER CODE END 0 */
  64:Core/Src/main.c **** 
  65:Core/Src/main.c **** /**
  66:Core/Src/main.c ****   * @brief  The application entry point.
  67:Core/Src/main.c ****   * @retval int
  68:Core/Src/main.c ****   */
  69:Core/Src/main.c **** int main(void)
  70:Core/Src/main.c **** {
  71:Core/Src/main.c ****   /* USER CODE BEGIN 1 */
  72:Core/Src/main.c **** 
  73:Core/Src/main.c ****   /* USER CODE END 1 */
  74:Core/Src/main.c **** 
  75:Core/Src/main.c ****   /* MCU Configuration--------------------------------------------------------*/
  76:Core/Src/main.c **** 
  77:Core/Src/main.c ****   /* Reset of all peripherals, Initializes the Flash interface and the Systick. */
  78:Core/Src/main.c ****   HAL_Init();
  79:Core/Src/main.c **** 
  80:Core/Src/main.c ****   /* USER CODE BEGIN Init */
  81:Core/Src/main.c **** 
  82:Core/Src/main.c ****   /* USER CODE END Init */
  83:Core/Src/main.c **** 
  84:Core/Src/main.c ****   /* Configure the system clock */
  85:Core/Src/main.c ****   SystemClock_Config();
  86:Core/Src/main.c **** 
  87:Core/Src/main.c ****   /* USER CODE BEGIN SysInit */
  88:Core/Src/main.c **** 
  89:Core/Src/main.c ****   /* USER CODE END SysInit */
  90:Core/Src/main.c **** 
ARM GAS  C:\Users\vladk\AppData\Local\Temp\ccvvBoWu.s 			page 3


  91:Core/Src/main.c ****   /* Initialize all configured peripherals */
  92:Core/Src/main.c ****   MX_GPIO_Init();
  93:Core/Src/main.c ****   MX_SPI1_Init();
  94:Core/Src/main.c ****   MX_TIM2_Init();
  95:Core/Src/main.c ****   HAL_GPIO_WritePin(GPIOA, GPIO_PIN_3, 1);
  96:Core/Src/main.c ****   LoRa_Init();
  97:Core/Src/main.c ****   /* USER CODE BEGIN 2 */
  98:Core/Src/main.c **** 
  99:Core/Src/main.c **** 
 100:Core/Src/main.c ****   /* USER CODE END 2 */
 101:Core/Src/main.c **** 
 102:Core/Src/main.c ****   /* Infinite loop */
 103:Core/Src/main.c ****   /* USER CODE BEGIN WHILE */
 104:Core/Src/main.c ****     uint8_t data[2] = {0x13, 0x34};
 105:Core/Src/main.c ****     // init sx126x
 106:Core/Src/main.c ****     HAL_GPIO_WritePin(GPIOA, GPIO_PIN_3, 0);
 107:Core/Src/main.c ****     sx126x_Init(&hspi1, &modem);
 108:Core/Src/main.c ****     HAL_GPIO_WritePin(GPIOA, GPIO_PIN_3, 1);
 109:Core/Src/main.c **** 
 110:Core/Src/main.c ****     HAL_GPIO_WritePin(GPIOA, GPIO_PIN_3, 0);
 111:Core/Src/main.c ****     sx126x_SendData(&hspi1, &modem, data, 2);
 112:Core/Src/main.c ****     HAL_GPIO_WritePin(GPIOA, GPIO_PIN_3, 1);
 113:Core/Src/main.c ****   while (1)
 114:Core/Src/main.c ****   {
 115:Core/Src/main.c ****     /* USER CODE END WHILE */
 116:Core/Src/main.c ****     HAL_GPIO_WritePin(GPIOA, GPIO_PIN_3, 0);
 117:Core/Src/main.c ****     sx126x_SendData(&hspi1, &modem, data, 2);
 118:Core/Src/main.c ****     HAL_GPIO_WritePin(GPIOA, GPIO_PIN_3, 1);
 119:Core/Src/main.c ****     HAL_Delay(1000);
 120:Core/Src/main.c ****     /* USER CODE BEGIN 3 */
 121:Core/Src/main.c ****   }
 122:Core/Src/main.c ****   /* USER CODE END 3 */
 123:Core/Src/main.c **** }
 124:Core/Src/main.c **** 
 125:Core/Src/main.c **** 
 126:Core/Src/main.c **** 
 127:Core/Src/main.c **** 
 128:Core/Src/main.c **** /**
 129:Core/Src/main.c ****   * @brief System Clock Configuration
 130:Core/Src/main.c ****   * @retval None
 131:Core/Src/main.c ****   */
 132:Core/Src/main.c **** void SystemClock_Config(void)
 133:Core/Src/main.c **** {
 134:Core/Src/main.c ****   RCC_OscInitTypeDef RCC_OscInitStruct = {0};
 135:Core/Src/main.c ****   RCC_ClkInitTypeDef RCC_ClkInitStruct = {0};
 136:Core/Src/main.c **** 
 137:Core/Src/main.c ****   /** Initializes the RCC Oscillators according to the specified parameters
 138:Core/Src/main.c ****   * in the RCC_OscInitTypeDef structure.
 139:Core/Src/main.c ****   */
 140:Core/Src/main.c ****   RCC_OscInitStruct.OscillatorType = RCC_OSCILLATORTYPE_HSI;
 141:Core/Src/main.c ****   RCC_OscInitStruct.HSIState = RCC_HSI_ON;
 142:Core/Src/main.c ****   RCC_OscInitStruct.HSICalibrationValue = RCC_HSICALIBRATION_DEFAULT;
 143:Core/Src/main.c ****   RCC_OscInitStruct.PLL.PLLState = RCC_PLL_ON;
 144:Core/Src/main.c ****   RCC_OscInitStruct.PLL.PLLSource = RCC_PLLSOURCE_HSI_DIV2;
 145:Core/Src/main.c ****   RCC_OscInitStruct.PLL.PLLMUL = RCC_PLL_MUL5;
 146:Core/Src/main.c ****   if (HAL_RCC_OscConfig(&RCC_OscInitStruct) != HAL_OK)
 147:Core/Src/main.c ****   {
ARM GAS  C:\Users\vladk\AppData\Local\Temp\ccvvBoWu.s 			page 4


 148:Core/Src/main.c ****     Error_Handler();
 149:Core/Src/main.c ****   }
 150:Core/Src/main.c **** 
 151:Core/Src/main.c ****   /** Initializes the CPU, AHB and APB buses clocks
 152:Core/Src/main.c ****   */
 153:Core/Src/main.c ****   RCC_ClkInitStruct.ClockType = RCC_CLOCKTYPE_HCLK|RCC_CLOCKTYPE_SYSCLK
 154:Core/Src/main.c ****                               |RCC_CLOCKTYPE_PCLK1|RCC_CLOCKTYPE_PCLK2;
 155:Core/Src/main.c ****   RCC_ClkInitStruct.SYSCLKSource = RCC_SYSCLKSOURCE_PLLCLK;
 156:Core/Src/main.c ****   RCC_ClkInitStruct.AHBCLKDivider = RCC_SYSCLK_DIV2;
 157:Core/Src/main.c ****   RCC_ClkInitStruct.APB1CLKDivider = RCC_HCLK_DIV1;
 158:Core/Src/main.c ****   RCC_ClkInitStruct.APB2CLKDivider = RCC_HCLK_DIV1;
 159:Core/Src/main.c **** 
 160:Core/Src/main.c ****   if (HAL_RCC_ClockConfig(&RCC_ClkInitStruct, FLASH_LATENCY_0) != HAL_OK)
 161:Core/Src/main.c ****   {
 162:Core/Src/main.c ****     Error_Handler();
 163:Core/Src/main.c ****   }
 164:Core/Src/main.c **** }
 165:Core/Src/main.c **** 
 166:Core/Src/main.c **** /**
 167:Core/Src/main.c ****   * @brief SPI1 Initialization Function
 168:Core/Src/main.c ****   * @param None
 169:Core/Src/main.c ****   * @retval None
 170:Core/Src/main.c ****   */
 171:Core/Src/main.c **** static void MX_SPI1_Init(void)
 172:Core/Src/main.c **** {
 173:Core/Src/main.c **** 
 174:Core/Src/main.c ****   /* USER CODE BEGIN SPI1_Init 0 */
 175:Core/Src/main.c **** 
 176:Core/Src/main.c ****   /* USER CODE END SPI1_Init 0 */
 177:Core/Src/main.c **** 
 178:Core/Src/main.c ****   /* USER CODE BEGIN SPI1_Init 1 */
 179:Core/Src/main.c **** 
 180:Core/Src/main.c ****   /* USER CODE END SPI1_Init 1 */
 181:Core/Src/main.c ****   /* SPI1 parameter configuration*/
 182:Core/Src/main.c ****   hspi1.Instance = SPI1;
 183:Core/Src/main.c ****   hspi1.Init.Mode = SPI_MODE_MASTER;
 184:Core/Src/main.c ****   hspi1.Init.Direction = SPI_DIRECTION_2LINES;
 185:Core/Src/main.c ****   hspi1.Init.DataSize = SPI_DATASIZE_8BIT;
 186:Core/Src/main.c ****   hspi1.Init.CLKPolarity = SPI_POLARITY_LOW;
 187:Core/Src/main.c ****   hspi1.Init.CLKPhase = SPI_PHASE_1EDGE;
 188:Core/Src/main.c ****   hspi1.Init.NSS = SPI_NSS_HARD_OUTPUT;
 189:Core/Src/main.c ****   hspi1.Init.BaudRatePrescaler = SPI_BAUDRATEPRESCALER_8;
 190:Core/Src/main.c ****   hspi1.Init.FirstBit = SPI_FIRSTBIT_MSB;
 191:Core/Src/main.c ****   hspi1.Init.TIMode = SPI_TIMODE_DISABLE;
 192:Core/Src/main.c ****   hspi1.Init.CRCCalculation = SPI_CRCCALCULATION_DISABLE;
 193:Core/Src/main.c ****   hspi1.Init.CRCPolynomial = 10;
 194:Core/Src/main.c ****   if (HAL_SPI_Init(&hspi1) != HAL_OK)
 195:Core/Src/main.c ****   {
 196:Core/Src/main.c ****     Error_Handler();
 197:Core/Src/main.c ****   }
 198:Core/Src/main.c ****   /* USER CODE BEGIN SPI1_Init 2 */
 199:Core/Src/main.c **** 
 200:Core/Src/main.c ****   /* USER CODE END SPI1_Init 2 */
 201:Core/Src/main.c **** 
 202:Core/Src/main.c **** }
 203:Core/Src/main.c **** 
 204:Core/Src/main.c **** /**
ARM GAS  C:\Users\vladk\AppData\Local\Temp\ccvvBoWu.s 			page 5


 205:Core/Src/main.c ****   * @brief TIM2 Initialization Function
 206:Core/Src/main.c ****   * @param None
 207:Core/Src/main.c ****   * @retval None
 208:Core/Src/main.c ****   */
 209:Core/Src/main.c **** static void MX_TIM2_Init(void)
 210:Core/Src/main.c **** {
 211:Core/Src/main.c **** 
 212:Core/Src/main.c ****   /* USER CODE BEGIN TIM2_Init 0 */
 213:Core/Src/main.c **** 
 214:Core/Src/main.c ****   /* USER CODE END TIM2_Init 0 */
 215:Core/Src/main.c **** 
 216:Core/Src/main.c ****   TIM_ClockConfigTypeDef sClockSourceConfig = {0};
 217:Core/Src/main.c ****   TIM_MasterConfigTypeDef sMasterConfig = {0};
 218:Core/Src/main.c **** 
 219:Core/Src/main.c ****   /* USER CODE BEGIN TIM2_Init 1 */
 220:Core/Src/main.c **** 
 221:Core/Src/main.c ****   /* USER CODE END TIM2_Init 1 */
 222:Core/Src/main.c ****   htim2.Instance = TIM2;
 223:Core/Src/main.c ****   htim2.Init.Prescaler = 10;
 224:Core/Src/main.c ****   htim2.Init.CounterMode = TIM_COUNTERMODE_UP;
 225:Core/Src/main.c ****   htim2.Init.Period = 65535;
 226:Core/Src/main.c ****   htim2.Init.ClockDivision = TIM_CLOCKDIVISION_DIV1;
 227:Core/Src/main.c ****   htim2.Init.AutoReloadPreload = TIM_AUTORELOAD_PRELOAD_DISABLE;
 228:Core/Src/main.c ****   if (HAL_TIM_Base_Init(&htim2) != HAL_OK)
 229:Core/Src/main.c ****   {
 230:Core/Src/main.c ****     Error_Handler();
 231:Core/Src/main.c ****   }
 232:Core/Src/main.c ****   sClockSourceConfig.ClockSource = TIM_CLOCKSOURCE_INTERNAL;
 233:Core/Src/main.c ****   if (HAL_TIM_ConfigClockSource(&htim2, &sClockSourceConfig) != HAL_OK)
 234:Core/Src/main.c ****   {
 235:Core/Src/main.c ****     Error_Handler();
 236:Core/Src/main.c ****   }
 237:Core/Src/main.c ****   sMasterConfig.MasterOutputTrigger = TIM_TRGO_RESET;
 238:Core/Src/main.c ****   sMasterConfig.MasterSlaveMode = TIM_MASTERSLAVEMODE_DISABLE;
 239:Core/Src/main.c ****   if (HAL_TIMEx_MasterConfigSynchronization(&htim2, &sMasterConfig) != HAL_OK)
 240:Core/Src/main.c ****   {
 241:Core/Src/main.c ****     Error_Handler();
 242:Core/Src/main.c ****   }
 243:Core/Src/main.c ****   /* USER CODE BEGIN TIM2_Init 2 */
 244:Core/Src/main.c **** 
 245:Core/Src/main.c ****   /* USER CODE END TIM2_Init 2 */
 246:Core/Src/main.c **** 
 247:Core/Src/main.c **** }
 248:Core/Src/main.c **** 
 249:Core/Src/main.c **** /**
 250:Core/Src/main.c ****   * @brief GPIO Initialization Function
 251:Core/Src/main.c ****   * @param None
 252:Core/Src/main.c ****   * @retval None
 253:Core/Src/main.c ****   */
 254:Core/Src/main.c **** static void MX_GPIO_Init(void)
 255:Core/Src/main.c **** {
  26              		.loc 1 255 1 view -0
  27              		.cfi_startproc
  28              		@ args = 0, pretend = 0, frame = 24
  29              		@ frame_needed = 0, uses_anonymous_args = 0
  30 0000 30B5     		push	{r4, r5, lr}
  31              	.LCFI0:
ARM GAS  C:\Users\vladk\AppData\Local\Temp\ccvvBoWu.s 			page 6


  32              		.cfi_def_cfa_offset 12
  33              		.cfi_offset 4, -12
  34              		.cfi_offset 5, -8
  35              		.cfi_offset 14, -4
  36 0002 87B0     		sub	sp, sp, #28
  37              	.LCFI1:
  38              		.cfi_def_cfa_offset 40
 256:Core/Src/main.c ****   GPIO_InitTypeDef GPIO_InitStruct = {0};
  39              		.loc 1 256 3 view .LVU1
  40              		.loc 1 256 20 is_stmt 0 view .LVU2
  41 0004 0024     		movs	r4, #0
  42 0006 0294     		str	r4, [sp, #8]
  43 0008 0394     		str	r4, [sp, #12]
  44 000a 0494     		str	r4, [sp, #16]
  45 000c 0594     		str	r4, [sp, #20]
 257:Core/Src/main.c **** 
 258:Core/Src/main.c ****   /* GPIO Ports Clock Enable */
 259:Core/Src/main.c ****   __HAL_RCC_GPIOA_CLK_ENABLE();
  46              		.loc 1 259 3 is_stmt 1 view .LVU3
  47              	.LBB4:
  48              		.loc 1 259 3 view .LVU4
  49              		.loc 1 259 3 view .LVU5
  50 000e 0E4B     		ldr	r3, .L3
  51 0010 9A69     		ldr	r2, [r3, #24]
  52 0012 42F00402 		orr	r2, r2, #4
  53 0016 9A61     		str	r2, [r3, #24]
  54              		.loc 1 259 3 view .LVU6
  55 0018 9B69     		ldr	r3, [r3, #24]
  56 001a 03F00403 		and	r3, r3, #4
  57 001e 0193     		str	r3, [sp, #4]
  58              		.loc 1 259 3 view .LVU7
  59 0020 019B     		ldr	r3, [sp, #4]
  60              	.LBE4:
  61              		.loc 1 259 3 view .LVU8
 260:Core/Src/main.c **** 
 261:Core/Src/main.c ****   /*Configure GPIO pin Output Level */
 262:Core/Src/main.c ****   HAL_GPIO_WritePin(GPIOA, GPIO_PIN_3, GPIO_PIN_RESET);
  62              		.loc 1 262 3 view .LVU9
  63 0022 0A4D     		ldr	r5, .L3+4
  64 0024 2246     		mov	r2, r4
  65 0026 0821     		movs	r1, #8
  66 0028 2846     		mov	r0, r5
  67 002a FFF7FEFF 		bl	HAL_GPIO_WritePin
  68              	.LVL0:
 263:Core/Src/main.c **** 
 264:Core/Src/main.c ****   /*Configure GPIO pin : PA3 */
 265:Core/Src/main.c ****   GPIO_InitStruct.Pin = GPIO_PIN_3;
  69              		.loc 1 265 3 view .LVU10
  70              		.loc 1 265 23 is_stmt 0 view .LVU11
  71 002e 0823     		movs	r3, #8
  72 0030 0293     		str	r3, [sp, #8]
 266:Core/Src/main.c ****   GPIO_InitStruct.Mode = GPIO_MODE_OUTPUT_PP;
  73              		.loc 1 266 3 is_stmt 1 view .LVU12
  74              		.loc 1 266 24 is_stmt 0 view .LVU13
  75 0032 0123     		movs	r3, #1
  76 0034 0393     		str	r3, [sp, #12]
 267:Core/Src/main.c ****   GPIO_InitStruct.Pull = GPIO_NOPULL;
ARM GAS  C:\Users\vladk\AppData\Local\Temp\ccvvBoWu.s 			page 7


  77              		.loc 1 267 3 is_stmt 1 view .LVU14
  78              		.loc 1 267 24 is_stmt 0 view .LVU15
  79 0036 0494     		str	r4, [sp, #16]
 268:Core/Src/main.c ****   GPIO_InitStruct.Speed = GPIO_SPEED_FREQ_LOW;
  80              		.loc 1 268 3 is_stmt 1 view .LVU16
  81              		.loc 1 268 25 is_stmt 0 view .LVU17
  82 0038 0223     		movs	r3, #2
  83 003a 0593     		str	r3, [sp, #20]
 269:Core/Src/main.c ****   HAL_GPIO_Init(GPIOA, &GPIO_InitStruct);
  84              		.loc 1 269 3 is_stmt 1 view .LVU18
  85 003c 02A9     		add	r1, sp, #8
  86 003e 2846     		mov	r0, r5
  87 0040 FFF7FEFF 		bl	HAL_GPIO_Init
  88              	.LVL1:
 270:Core/Src/main.c **** 
 271:Core/Src/main.c **** }
  89              		.loc 1 271 1 is_stmt 0 view .LVU19
  90 0044 07B0     		add	sp, sp, #28
  91              	.LCFI2:
  92              		.cfi_def_cfa_offset 12
  93              		@ sp needed
  94 0046 30BD     		pop	{r4, r5, pc}
  95              	.L4:
  96              		.align	2
  97              	.L3:
  98 0048 00100240 		.word	1073876992
  99 004c 00080140 		.word	1073809408
 100              		.cfi_endproc
 101              	.LFE69:
 103              		.section	.text.LoRa_Init,"ax",%progbits
 104              		.align	1
 105              		.global	LoRa_Init
 106              		.syntax unified
 107              		.thumb
 108              		.thumb_func
 109              		.fpu softvfp
 111              	LoRa_Init:
 112              	.LFB70:
 272:Core/Src/main.c **** 
 273:Core/Src/main.c **** /* USER CODE BEGIN 4 */
 274:Core/Src/main.c **** void LoRa_Init(){
 113              		.loc 1 274 17 is_stmt 1 view -0
 114              		.cfi_startproc
 115              		@ args = 0, pretend = 0, frame = 0
 116              		@ frame_needed = 0, uses_anonymous_args = 0
 117              		@ link register save eliminated.
 275:Core/Src/main.c ****     modem.StdbyConfig = SX126X_STDBY_RC;
 118              		.loc 1 275 5 view .LVU21
 119              		.loc 1 275 23 is_stmt 0 view .LVU22
 120 0000 0F4B     		ldr	r3, .L6
 121 0002 0022     		movs	r2, #0
 122 0004 1A70     		strb	r2, [r3]
 276:Core/Src/main.c ****     modem.PacketType = SX126X_PACKET_TYPE_LORA;
 123              		.loc 1 276 5 is_stmt 1 view .LVU23
 124              		.loc 1 276 22 is_stmt 0 view .LVU24
 125 0006 0120     		movs	r0, #1
 126 0008 5870     		strb	r0, [r3, #1]
ARM GAS  C:\Users\vladk\AppData\Local\Temp\ccvvBoWu.s 			page 8


 277:Core/Src/main.c ****     modem.RfFreq = 820000000;
 127              		.loc 1 277 5 is_stmt 1 view .LVU25
 128              		.loc 1 277 18 is_stmt 0 view .LVU26
 129 000a 0E49     		ldr	r1, .L6+4
 130 000c 5960     		str	r1, [r3, #4]
 278:Core/Src/main.c ****     modem.Power = 0xF7;
 131              		.loc 1 278 5 is_stmt 1 view .LVU27
 132              		.loc 1 278 17 is_stmt 0 view .LVU28
 133 000e F721     		movs	r1, #247
 134 0010 1972     		strb	r1, [r3, #8]
 279:Core/Src/main.c ****     modem.RampTime = SX126X_RAMP_800U;
 135              		.loc 1 279 5 is_stmt 1 view .LVU29
 136              		.loc 1 279 20 is_stmt 0 view .LVU30
 137 0012 4FF0050C 		mov	ip, #5
 138 0016 83F809C0 		strb	ip, [r3, #9]
 280:Core/Src/main.c ****     modem.TX_Base_Address = 0;
 139              		.loc 1 280 5 is_stmt 1 view .LVU31
 140              		.loc 1 280 27 is_stmt 0 view .LVU32
 141 001a 9A72     		strb	r2, [r3, #10]
 281:Core/Src/main.c ****     modem.RX_Base_Address = 128;
 142              		.loc 1 281 5 is_stmt 1 view .LVU33
 143              		.loc 1 281 27 is_stmt 0 view .LVU34
 144 001c 8021     		movs	r1, #128
 145 001e D972     		strb	r1, [r3, #11]
 282:Core/Src/main.c ****     modem.spredingFactor = SF8;
 146              		.loc 1 282 5 is_stmt 1 view .LVU35
 147              		.loc 1 282 26 is_stmt 0 view .LVU36
 148 0020 0821     		movs	r1, #8
 149 0022 1973     		strb	r1, [r3, #12]
 283:Core/Src/main.c ****     modem.BandWidth = SX126X_BW_250;
 150              		.loc 1 283 5 is_stmt 1 view .LVU37
 151              		.loc 1 283 21 is_stmt 0 view .LVU38
 152 0024 83F80DC0 		strb	ip, [r3, #13]
 284:Core/Src/main.c ****     modem.crcRate = SX126X_CR_4_5;
 153              		.loc 1 284 5 is_stmt 1 view .LVU39
 154              		.loc 1 284 19 is_stmt 0 view .LVU40
 155 0028 9873     		strb	r0, [r3, #14]
 285:Core/Src/main.c ****     modem.LowDataRateOptimize = 0x00;
 156              		.loc 1 285 5 is_stmt 1 view .LVU41
 157              		.loc 1 285 31 is_stmt 0 view .LVU42
 158 002a DA73     		strb	r2, [r3, #15]
 286:Core/Src/main.c ****     modem.SyncWord = 0x1424;
 159              		.loc 1 286 5 is_stmt 1 view .LVU43
 160              		.loc 1 286 20 is_stmt 0 view .LVU44
 161 002c 41F22440 		movw	r0, #5156
 162 0030 1882     		strh	r0, [r3, #16]	@ movhi
 287:Core/Src/main.c ****     modem.PreambleLen = 8;
 163              		.loc 1 287 5 is_stmt 1 view .LVU45
 164              		.loc 1 287 23 is_stmt 0 view .LVU46
 165 0032 5982     		strh	r1, [r3, #18]	@ movhi
 288:Core/Src/main.c ****     modem.HeaderType = SX126X_HEADER_TYPE_VARIABLE_LENGTH;
 166              		.loc 1 288 5 is_stmt 1 view .LVU47
 167              		.loc 1 288 22 is_stmt 0 view .LVU48
 168 0034 1A75     		strb	r2, [r3, #20]
 289:Core/Src/main.c ****     modem.crcType = SX126X_CRC_OFF;
 169              		.loc 1 289 5 is_stmt 1 view .LVU49
 170              		.loc 1 289 19 is_stmt 0 view .LVU50
ARM GAS  C:\Users\vladk\AppData\Local\Temp\ccvvBoWu.s 			page 9


 171 0036 5A75     		strb	r2, [r3, #21]
 290:Core/Src/main.c ****     modem.InvertIq = SX126X_STANDARD_IQ;
 172              		.loc 1 290 5 is_stmt 1 view .LVU51
 173              		.loc 1 290 20 is_stmt 0 view .LVU52
 174 0038 9A75     		strb	r2, [r3, #22]
 291:Core/Src/main.c ****     modem.IrqStatus = 0;
 175              		.loc 1 291 5 is_stmt 1 view .LVU53
 176              		.loc 1 291 21 is_stmt 0 view .LVU54
 177 003a DA75     		strb	r2, [r3, #23]
 292:Core/Src/main.c **** }
 178              		.loc 1 292 1 view .LVU55
 179 003c 7047     		bx	lr
 180              	.L7:
 181 003e 00BF     		.align	2
 182              	.L6:
 183 0040 00000000 		.word	.LANCHOR0
 184 0044 0035E030 		.word	820000000
 185              		.cfi_endproc
 186              	.LFE70:
 188              		.section	.text.Error_Handler,"ax",%progbits
 189              		.align	1
 190              		.global	Error_Handler
 191              		.syntax unified
 192              		.thumb
 193              		.thumb_func
 194              		.fpu softvfp
 196              	Error_Handler:
 197              	.LFB71:
 293:Core/Src/main.c **** /* USER CODE END 4 */
 294:Core/Src/main.c **** 
 295:Core/Src/main.c **** /**
 296:Core/Src/main.c ****   * @brief  This function is executed in case of error occurrence.
 297:Core/Src/main.c ****   * @retval None
 298:Core/Src/main.c ****   */
 299:Core/Src/main.c **** void Error_Handler(void)
 300:Core/Src/main.c **** {
 198              		.loc 1 300 1 is_stmt 1 view -0
 199              		.cfi_startproc
 200              		@ Volatile: function does not return.
 201              		@ args = 0, pretend = 0, frame = 0
 202              		@ frame_needed = 0, uses_anonymous_args = 0
 203              		@ link register save eliminated.
 301:Core/Src/main.c ****   /* USER CODE BEGIN Error_Handler_Debug */
 302:Core/Src/main.c ****   /* User can add his own implementation to report the HAL error return state */
 303:Core/Src/main.c ****   __disable_irq();
 204              		.loc 1 303 3 view .LVU57
 205              	.LBB5:
 206              	.LBI5:
 207              		.file 2 "Drivers/CMSIS/Include/cmsis_gcc.h"
   1:Drivers/CMSIS/Include/cmsis_gcc.h **** /**************************************************************************//**
   2:Drivers/CMSIS/Include/cmsis_gcc.h ****  * @file     cmsis_gcc.h
   3:Drivers/CMSIS/Include/cmsis_gcc.h ****  * @brief    CMSIS compiler GCC header file
   4:Drivers/CMSIS/Include/cmsis_gcc.h ****  * @version  V5.0.4
   5:Drivers/CMSIS/Include/cmsis_gcc.h ****  * @date     09. April 2018
   6:Drivers/CMSIS/Include/cmsis_gcc.h ****  ******************************************************************************/
   7:Drivers/CMSIS/Include/cmsis_gcc.h **** /*
   8:Drivers/CMSIS/Include/cmsis_gcc.h ****  * Copyright (c) 2009-2018 Arm Limited. All rights reserved.
ARM GAS  C:\Users\vladk\AppData\Local\Temp\ccvvBoWu.s 			page 10


   9:Drivers/CMSIS/Include/cmsis_gcc.h ****  *
  10:Drivers/CMSIS/Include/cmsis_gcc.h ****  * SPDX-License-Identifier: Apache-2.0
  11:Drivers/CMSIS/Include/cmsis_gcc.h ****  *
  12:Drivers/CMSIS/Include/cmsis_gcc.h ****  * Licensed under the Apache License, Version 2.0 (the License); you may
  13:Drivers/CMSIS/Include/cmsis_gcc.h ****  * not use this file except in compliance with the License.
  14:Drivers/CMSIS/Include/cmsis_gcc.h ****  * You may obtain a copy of the License at
  15:Drivers/CMSIS/Include/cmsis_gcc.h ****  *
  16:Drivers/CMSIS/Include/cmsis_gcc.h ****  * www.apache.org/licenses/LICENSE-2.0
  17:Drivers/CMSIS/Include/cmsis_gcc.h ****  *
  18:Drivers/CMSIS/Include/cmsis_gcc.h ****  * Unless required by applicable law or agreed to in writing, software
  19:Drivers/CMSIS/Include/cmsis_gcc.h ****  * distributed under the License is distributed on an AS IS BASIS, WITHOUT
  20:Drivers/CMSIS/Include/cmsis_gcc.h ****  * WARRANTIES OR CONDITIONS OF ANY KIND, either express or implied.
  21:Drivers/CMSIS/Include/cmsis_gcc.h ****  * See the License for the specific language governing permissions and
  22:Drivers/CMSIS/Include/cmsis_gcc.h ****  * limitations under the License.
  23:Drivers/CMSIS/Include/cmsis_gcc.h ****  */
  24:Drivers/CMSIS/Include/cmsis_gcc.h **** 
  25:Drivers/CMSIS/Include/cmsis_gcc.h **** #ifndef __CMSIS_GCC_H
  26:Drivers/CMSIS/Include/cmsis_gcc.h **** #define __CMSIS_GCC_H
  27:Drivers/CMSIS/Include/cmsis_gcc.h **** 
  28:Drivers/CMSIS/Include/cmsis_gcc.h **** /* ignore some GCC warnings */
  29:Drivers/CMSIS/Include/cmsis_gcc.h **** #pragma GCC diagnostic push
  30:Drivers/CMSIS/Include/cmsis_gcc.h **** #pragma GCC diagnostic ignored "-Wsign-conversion"
  31:Drivers/CMSIS/Include/cmsis_gcc.h **** #pragma GCC diagnostic ignored "-Wconversion"
  32:Drivers/CMSIS/Include/cmsis_gcc.h **** #pragma GCC diagnostic ignored "-Wunused-parameter"
  33:Drivers/CMSIS/Include/cmsis_gcc.h **** 
  34:Drivers/CMSIS/Include/cmsis_gcc.h **** /* Fallback for __has_builtin */
  35:Drivers/CMSIS/Include/cmsis_gcc.h **** #ifndef __has_builtin
  36:Drivers/CMSIS/Include/cmsis_gcc.h ****   #define __has_builtin(x) (0)
  37:Drivers/CMSIS/Include/cmsis_gcc.h **** #endif
  38:Drivers/CMSIS/Include/cmsis_gcc.h **** 
  39:Drivers/CMSIS/Include/cmsis_gcc.h **** /* CMSIS compiler specific defines */
  40:Drivers/CMSIS/Include/cmsis_gcc.h **** #ifndef   __ASM
  41:Drivers/CMSIS/Include/cmsis_gcc.h ****   #define __ASM                                  __asm
  42:Drivers/CMSIS/Include/cmsis_gcc.h **** #endif
  43:Drivers/CMSIS/Include/cmsis_gcc.h **** #ifndef   __INLINE
  44:Drivers/CMSIS/Include/cmsis_gcc.h ****   #define __INLINE                               inline
  45:Drivers/CMSIS/Include/cmsis_gcc.h **** #endif
  46:Drivers/CMSIS/Include/cmsis_gcc.h **** #ifndef   __STATIC_INLINE
  47:Drivers/CMSIS/Include/cmsis_gcc.h ****   #define __STATIC_INLINE                        static inline
  48:Drivers/CMSIS/Include/cmsis_gcc.h **** #endif
  49:Drivers/CMSIS/Include/cmsis_gcc.h **** #ifndef   __STATIC_FORCEINLINE                 
  50:Drivers/CMSIS/Include/cmsis_gcc.h ****   #define __STATIC_FORCEINLINE                   __attribute__((always_inline)) static inline
  51:Drivers/CMSIS/Include/cmsis_gcc.h **** #endif                                           
  52:Drivers/CMSIS/Include/cmsis_gcc.h **** #ifndef   __NO_RETURN
  53:Drivers/CMSIS/Include/cmsis_gcc.h ****   #define __NO_RETURN                            __attribute__((__noreturn__))
  54:Drivers/CMSIS/Include/cmsis_gcc.h **** #endif
  55:Drivers/CMSIS/Include/cmsis_gcc.h **** #ifndef   __USED
  56:Drivers/CMSIS/Include/cmsis_gcc.h ****   #define __USED                                 __attribute__((used))
  57:Drivers/CMSIS/Include/cmsis_gcc.h **** #endif
  58:Drivers/CMSIS/Include/cmsis_gcc.h **** #ifndef   __WEAK
  59:Drivers/CMSIS/Include/cmsis_gcc.h ****   #define __WEAK                                 __attribute__((weak))
  60:Drivers/CMSIS/Include/cmsis_gcc.h **** #endif
  61:Drivers/CMSIS/Include/cmsis_gcc.h **** #ifndef   __PACKED
  62:Drivers/CMSIS/Include/cmsis_gcc.h ****   #define __PACKED                               __attribute__((packed, aligned(1)))
  63:Drivers/CMSIS/Include/cmsis_gcc.h **** #endif
  64:Drivers/CMSIS/Include/cmsis_gcc.h **** #ifndef   __PACKED_STRUCT
  65:Drivers/CMSIS/Include/cmsis_gcc.h ****   #define __PACKED_STRUCT                        struct __attribute__((packed, aligned(1)))
ARM GAS  C:\Users\vladk\AppData\Local\Temp\ccvvBoWu.s 			page 11


  66:Drivers/CMSIS/Include/cmsis_gcc.h **** #endif
  67:Drivers/CMSIS/Include/cmsis_gcc.h **** #ifndef   __PACKED_UNION
  68:Drivers/CMSIS/Include/cmsis_gcc.h ****   #define __PACKED_UNION                         union __attribute__((packed, aligned(1)))
  69:Drivers/CMSIS/Include/cmsis_gcc.h **** #endif
  70:Drivers/CMSIS/Include/cmsis_gcc.h **** #ifndef   __UNALIGNED_UINT32        /* deprecated */
  71:Drivers/CMSIS/Include/cmsis_gcc.h ****   #pragma GCC diagnostic push
  72:Drivers/CMSIS/Include/cmsis_gcc.h ****   #pragma GCC diagnostic ignored "-Wpacked"
  73:Drivers/CMSIS/Include/cmsis_gcc.h ****   #pragma GCC diagnostic ignored "-Wattributes"
  74:Drivers/CMSIS/Include/cmsis_gcc.h ****   struct __attribute__((packed)) T_UINT32 { uint32_t v; };
  75:Drivers/CMSIS/Include/cmsis_gcc.h ****   #pragma GCC diagnostic pop
  76:Drivers/CMSIS/Include/cmsis_gcc.h ****   #define __UNALIGNED_UINT32(x)                  (((struct T_UINT32 *)(x))->v)
  77:Drivers/CMSIS/Include/cmsis_gcc.h **** #endif
  78:Drivers/CMSIS/Include/cmsis_gcc.h **** #ifndef   __UNALIGNED_UINT16_WRITE
  79:Drivers/CMSIS/Include/cmsis_gcc.h ****   #pragma GCC diagnostic push
  80:Drivers/CMSIS/Include/cmsis_gcc.h ****   #pragma GCC diagnostic ignored "-Wpacked"
  81:Drivers/CMSIS/Include/cmsis_gcc.h ****   #pragma GCC diagnostic ignored "-Wattributes"
  82:Drivers/CMSIS/Include/cmsis_gcc.h ****   __PACKED_STRUCT T_UINT16_WRITE { uint16_t v; };
  83:Drivers/CMSIS/Include/cmsis_gcc.h ****   #pragma GCC diagnostic pop
  84:Drivers/CMSIS/Include/cmsis_gcc.h ****   #define __UNALIGNED_UINT16_WRITE(addr, val)    (void)((((struct T_UINT16_WRITE *)(void *)(addr))-
  85:Drivers/CMSIS/Include/cmsis_gcc.h **** #endif
  86:Drivers/CMSIS/Include/cmsis_gcc.h **** #ifndef   __UNALIGNED_UINT16_READ
  87:Drivers/CMSIS/Include/cmsis_gcc.h ****   #pragma GCC diagnostic push
  88:Drivers/CMSIS/Include/cmsis_gcc.h ****   #pragma GCC diagnostic ignored "-Wpacked"
  89:Drivers/CMSIS/Include/cmsis_gcc.h ****   #pragma GCC diagnostic ignored "-Wattributes"
  90:Drivers/CMSIS/Include/cmsis_gcc.h ****   __PACKED_STRUCT T_UINT16_READ { uint16_t v; };
  91:Drivers/CMSIS/Include/cmsis_gcc.h ****   #pragma GCC diagnostic pop
  92:Drivers/CMSIS/Include/cmsis_gcc.h ****   #define __UNALIGNED_UINT16_READ(addr)          (((const struct T_UINT16_READ *)(const void *)(add
  93:Drivers/CMSIS/Include/cmsis_gcc.h **** #endif
  94:Drivers/CMSIS/Include/cmsis_gcc.h **** #ifndef   __UNALIGNED_UINT32_WRITE
  95:Drivers/CMSIS/Include/cmsis_gcc.h ****   #pragma GCC diagnostic push
  96:Drivers/CMSIS/Include/cmsis_gcc.h ****   #pragma GCC diagnostic ignored "-Wpacked"
  97:Drivers/CMSIS/Include/cmsis_gcc.h ****   #pragma GCC diagnostic ignored "-Wattributes"
  98:Drivers/CMSIS/Include/cmsis_gcc.h ****   __PACKED_STRUCT T_UINT32_WRITE { uint32_t v; };
  99:Drivers/CMSIS/Include/cmsis_gcc.h ****   #pragma GCC diagnostic pop
 100:Drivers/CMSIS/Include/cmsis_gcc.h ****   #define __UNALIGNED_UINT32_WRITE(addr, val)    (void)((((struct T_UINT32_WRITE *)(void *)(addr))-
 101:Drivers/CMSIS/Include/cmsis_gcc.h **** #endif
 102:Drivers/CMSIS/Include/cmsis_gcc.h **** #ifndef   __UNALIGNED_UINT32_READ
 103:Drivers/CMSIS/Include/cmsis_gcc.h ****   #pragma GCC diagnostic push
 104:Drivers/CMSIS/Include/cmsis_gcc.h ****   #pragma GCC diagnostic ignored "-Wpacked"
 105:Drivers/CMSIS/Include/cmsis_gcc.h ****   #pragma GCC diagnostic ignored "-Wattributes"
 106:Drivers/CMSIS/Include/cmsis_gcc.h ****   __PACKED_STRUCT T_UINT32_READ { uint32_t v; };
 107:Drivers/CMSIS/Include/cmsis_gcc.h ****   #pragma GCC diagnostic pop
 108:Drivers/CMSIS/Include/cmsis_gcc.h ****   #define __UNALIGNED_UINT32_READ(addr)          (((const struct T_UINT32_READ *)(const void *)(add
 109:Drivers/CMSIS/Include/cmsis_gcc.h **** #endif
 110:Drivers/CMSIS/Include/cmsis_gcc.h **** #ifndef   __ALIGNED
 111:Drivers/CMSIS/Include/cmsis_gcc.h ****   #define __ALIGNED(x)                           __attribute__((aligned(x)))
 112:Drivers/CMSIS/Include/cmsis_gcc.h **** #endif
 113:Drivers/CMSIS/Include/cmsis_gcc.h **** #ifndef   __RESTRICT
 114:Drivers/CMSIS/Include/cmsis_gcc.h ****   #define __RESTRICT                             __restrict
 115:Drivers/CMSIS/Include/cmsis_gcc.h **** #endif
 116:Drivers/CMSIS/Include/cmsis_gcc.h **** 
 117:Drivers/CMSIS/Include/cmsis_gcc.h **** 
 118:Drivers/CMSIS/Include/cmsis_gcc.h **** /* ###########################  Core Function Access  ########################### */
 119:Drivers/CMSIS/Include/cmsis_gcc.h **** /** \ingroup  CMSIS_Core_FunctionInterface
 120:Drivers/CMSIS/Include/cmsis_gcc.h ****     \defgroup CMSIS_Core_RegAccFunctions CMSIS Core Register Access Functions
 121:Drivers/CMSIS/Include/cmsis_gcc.h ****   @{
 122:Drivers/CMSIS/Include/cmsis_gcc.h ****  */
ARM GAS  C:\Users\vladk\AppData\Local\Temp\ccvvBoWu.s 			page 12


 123:Drivers/CMSIS/Include/cmsis_gcc.h **** 
 124:Drivers/CMSIS/Include/cmsis_gcc.h **** /**
 125:Drivers/CMSIS/Include/cmsis_gcc.h ****   \brief   Enable IRQ Interrupts
 126:Drivers/CMSIS/Include/cmsis_gcc.h ****   \details Enables IRQ interrupts by clearing the I-bit in the CPSR.
 127:Drivers/CMSIS/Include/cmsis_gcc.h ****            Can only be executed in Privileged modes.
 128:Drivers/CMSIS/Include/cmsis_gcc.h ****  */
 129:Drivers/CMSIS/Include/cmsis_gcc.h **** __STATIC_FORCEINLINE void __enable_irq(void)
 130:Drivers/CMSIS/Include/cmsis_gcc.h **** {
 131:Drivers/CMSIS/Include/cmsis_gcc.h ****   __ASM volatile ("cpsie i" : : : "memory");
 132:Drivers/CMSIS/Include/cmsis_gcc.h **** }
 133:Drivers/CMSIS/Include/cmsis_gcc.h **** 
 134:Drivers/CMSIS/Include/cmsis_gcc.h **** 
 135:Drivers/CMSIS/Include/cmsis_gcc.h **** /**
 136:Drivers/CMSIS/Include/cmsis_gcc.h ****   \brief   Disable IRQ Interrupts
 137:Drivers/CMSIS/Include/cmsis_gcc.h ****   \details Disables IRQ interrupts by setting the I-bit in the CPSR.
 138:Drivers/CMSIS/Include/cmsis_gcc.h ****            Can only be executed in Privileged modes.
 139:Drivers/CMSIS/Include/cmsis_gcc.h ****  */
 140:Drivers/CMSIS/Include/cmsis_gcc.h **** __STATIC_FORCEINLINE void __disable_irq(void)
 208              		.loc 2 140 27 view .LVU58
 209              	.LBB6:
 141:Drivers/CMSIS/Include/cmsis_gcc.h **** {
 142:Drivers/CMSIS/Include/cmsis_gcc.h ****   __ASM volatile ("cpsid i" : : : "memory");
 210              		.loc 2 142 3 view .LVU59
 211              		.syntax unified
 212              	@ 142 "Drivers/CMSIS/Include/cmsis_gcc.h" 1
 213 0000 72B6     		cpsid i
 214              	@ 0 "" 2
 215              		.thumb
 216              		.syntax unified
 217              	.L9:
 218              	.LBE6:
 219              	.LBE5:
 304:Core/Src/main.c ****   while (1)
 220              		.loc 1 304 3 discriminator 1 view .LVU60
 305:Core/Src/main.c ****   {
 306:Core/Src/main.c ****   }
 221              		.loc 1 306 3 discriminator 1 view .LVU61
 304:Core/Src/main.c ****   while (1)
 222              		.loc 1 304 9 discriminator 1 view .LVU62
 223 0002 FEE7     		b	.L9
 224              		.cfi_endproc
 225              	.LFE71:
 227              		.section	.text.MX_SPI1_Init,"ax",%progbits
 228              		.align	1
 229              		.syntax unified
 230              		.thumb
 231              		.thumb_func
 232              		.fpu softvfp
 234              	MX_SPI1_Init:
 235              	.LFB67:
 172:Core/Src/main.c **** 
 236              		.loc 1 172 1 view -0
 237              		.cfi_startproc
 238              		@ args = 0, pretend = 0, frame = 0
 239              		@ frame_needed = 0, uses_anonymous_args = 0
 240 0000 08B5     		push	{r3, lr}
 241              	.LCFI3:
ARM GAS  C:\Users\vladk\AppData\Local\Temp\ccvvBoWu.s 			page 13


 242              		.cfi_def_cfa_offset 8
 243              		.cfi_offset 3, -8
 244              		.cfi_offset 14, -4
 182:Core/Src/main.c ****   hspi1.Init.Mode = SPI_MODE_MASTER;
 245              		.loc 1 182 3 view .LVU64
 182:Core/Src/main.c ****   hspi1.Init.Mode = SPI_MODE_MASTER;
 246              		.loc 1 182 18 is_stmt 0 view .LVU65
 247 0002 0D48     		ldr	r0, .L14
 248 0004 0D4B     		ldr	r3, .L14+4
 249 0006 0360     		str	r3, [r0]
 183:Core/Src/main.c ****   hspi1.Init.Direction = SPI_DIRECTION_2LINES;
 250              		.loc 1 183 3 is_stmt 1 view .LVU66
 183:Core/Src/main.c ****   hspi1.Init.Direction = SPI_DIRECTION_2LINES;
 251              		.loc 1 183 19 is_stmt 0 view .LVU67
 252 0008 4FF48273 		mov	r3, #260
 253 000c 4360     		str	r3, [r0, #4]
 184:Core/Src/main.c ****   hspi1.Init.DataSize = SPI_DATASIZE_8BIT;
 254              		.loc 1 184 3 is_stmt 1 view .LVU68
 184:Core/Src/main.c ****   hspi1.Init.DataSize = SPI_DATASIZE_8BIT;
 255              		.loc 1 184 24 is_stmt 0 view .LVU69
 256 000e 0023     		movs	r3, #0
 257 0010 8360     		str	r3, [r0, #8]
 185:Core/Src/main.c ****   hspi1.Init.CLKPolarity = SPI_POLARITY_LOW;
 258              		.loc 1 185 3 is_stmt 1 view .LVU70
 185:Core/Src/main.c ****   hspi1.Init.CLKPolarity = SPI_POLARITY_LOW;
 259              		.loc 1 185 23 is_stmt 0 view .LVU71
 260 0012 C360     		str	r3, [r0, #12]
 186:Core/Src/main.c ****   hspi1.Init.CLKPhase = SPI_PHASE_1EDGE;
 261              		.loc 1 186 3 is_stmt 1 view .LVU72
 186:Core/Src/main.c ****   hspi1.Init.CLKPhase = SPI_PHASE_1EDGE;
 262              		.loc 1 186 26 is_stmt 0 view .LVU73
 263 0014 0361     		str	r3, [r0, #16]
 187:Core/Src/main.c ****   hspi1.Init.NSS = SPI_NSS_HARD_OUTPUT;
 264              		.loc 1 187 3 is_stmt 1 view .LVU74
 187:Core/Src/main.c ****   hspi1.Init.NSS = SPI_NSS_HARD_OUTPUT;
 265              		.loc 1 187 23 is_stmt 0 view .LVU75
 266 0016 4361     		str	r3, [r0, #20]
 188:Core/Src/main.c ****   hspi1.Init.BaudRatePrescaler = SPI_BAUDRATEPRESCALER_8;
 267              		.loc 1 188 3 is_stmt 1 view .LVU76
 188:Core/Src/main.c ****   hspi1.Init.BaudRatePrescaler = SPI_BAUDRATEPRESCALER_8;
 268              		.loc 1 188 18 is_stmt 0 view .LVU77
 269 0018 4FF48022 		mov	r2, #262144
 270 001c 8261     		str	r2, [r0, #24]
 189:Core/Src/main.c ****   hspi1.Init.FirstBit = SPI_FIRSTBIT_MSB;
 271              		.loc 1 189 3 is_stmt 1 view .LVU78
 189:Core/Src/main.c ****   hspi1.Init.FirstBit = SPI_FIRSTBIT_MSB;
 272              		.loc 1 189 32 is_stmt 0 view .LVU79
 273 001e 1022     		movs	r2, #16
 274 0020 C261     		str	r2, [r0, #28]
 190:Core/Src/main.c ****   hspi1.Init.TIMode = SPI_TIMODE_DISABLE;
 275              		.loc 1 190 3 is_stmt 1 view .LVU80
 190:Core/Src/main.c ****   hspi1.Init.TIMode = SPI_TIMODE_DISABLE;
 276              		.loc 1 190 23 is_stmt 0 view .LVU81
 277 0022 0362     		str	r3, [r0, #32]
 191:Core/Src/main.c ****   hspi1.Init.CRCCalculation = SPI_CRCCALCULATION_DISABLE;
 278              		.loc 1 191 3 is_stmt 1 view .LVU82
 191:Core/Src/main.c ****   hspi1.Init.CRCCalculation = SPI_CRCCALCULATION_DISABLE;
ARM GAS  C:\Users\vladk\AppData\Local\Temp\ccvvBoWu.s 			page 14


 279              		.loc 1 191 21 is_stmt 0 view .LVU83
 280 0024 4362     		str	r3, [r0, #36]
 192:Core/Src/main.c ****   hspi1.Init.CRCPolynomial = 10;
 281              		.loc 1 192 3 is_stmt 1 view .LVU84
 192:Core/Src/main.c ****   hspi1.Init.CRCPolynomial = 10;
 282              		.loc 1 192 29 is_stmt 0 view .LVU85
 283 0026 8362     		str	r3, [r0, #40]
 193:Core/Src/main.c ****   if (HAL_SPI_Init(&hspi1) != HAL_OK)
 284              		.loc 1 193 3 is_stmt 1 view .LVU86
 193:Core/Src/main.c ****   if (HAL_SPI_Init(&hspi1) != HAL_OK)
 285              		.loc 1 193 28 is_stmt 0 view .LVU87
 286 0028 0A23     		movs	r3, #10
 287 002a C362     		str	r3, [r0, #44]
 194:Core/Src/main.c ****   {
 288              		.loc 1 194 3 is_stmt 1 view .LVU88
 194:Core/Src/main.c ****   {
 289              		.loc 1 194 7 is_stmt 0 view .LVU89
 290 002c FFF7FEFF 		bl	HAL_SPI_Init
 291              	.LVL2:
 194:Core/Src/main.c ****   {
 292              		.loc 1 194 6 view .LVU90
 293 0030 00B9     		cbnz	r0, .L13
 202:Core/Src/main.c **** 
 294              		.loc 1 202 1 view .LVU91
 295 0032 08BD     		pop	{r3, pc}
 296              	.L13:
 196:Core/Src/main.c ****   }
 297              		.loc 1 196 5 is_stmt 1 view .LVU92
 298 0034 FFF7FEFF 		bl	Error_Handler
 299              	.LVL3:
 300              	.L15:
 301              		.align	2
 302              	.L14:
 303 0038 00000000 		.word	.LANCHOR1
 304 003c 00300140 		.word	1073819648
 305              		.cfi_endproc
 306              	.LFE67:
 308              		.section	.text.MX_TIM2_Init,"ax",%progbits
 309              		.align	1
 310              		.syntax unified
 311              		.thumb
 312              		.thumb_func
 313              		.fpu softvfp
 315              	MX_TIM2_Init:
 316              	.LFB68:
 210:Core/Src/main.c **** 
 317              		.loc 1 210 1 view -0
 318              		.cfi_startproc
 319              		@ args = 0, pretend = 0, frame = 24
 320              		@ frame_needed = 0, uses_anonymous_args = 0
 321 0000 00B5     		push	{lr}
 322              	.LCFI4:
 323              		.cfi_def_cfa_offset 4
 324              		.cfi_offset 14, -4
 325 0002 87B0     		sub	sp, sp, #28
 326              	.LCFI5:
 327              		.cfi_def_cfa_offset 32
ARM GAS  C:\Users\vladk\AppData\Local\Temp\ccvvBoWu.s 			page 15


 216:Core/Src/main.c ****   TIM_MasterConfigTypeDef sMasterConfig = {0};
 328              		.loc 1 216 3 view .LVU94
 216:Core/Src/main.c ****   TIM_MasterConfigTypeDef sMasterConfig = {0};
 329              		.loc 1 216 26 is_stmt 0 view .LVU95
 330 0004 0023     		movs	r3, #0
 331 0006 0293     		str	r3, [sp, #8]
 332 0008 0393     		str	r3, [sp, #12]
 333 000a 0493     		str	r3, [sp, #16]
 334 000c 0593     		str	r3, [sp, #20]
 217:Core/Src/main.c **** 
 335              		.loc 1 217 3 is_stmt 1 view .LVU96
 217:Core/Src/main.c **** 
 336              		.loc 1 217 27 is_stmt 0 view .LVU97
 337 000e 0093     		str	r3, [sp]
 338 0010 0193     		str	r3, [sp, #4]
 222:Core/Src/main.c ****   htim2.Init.Prescaler = 10;
 339              		.loc 1 222 3 is_stmt 1 view .LVU98
 222:Core/Src/main.c ****   htim2.Init.Prescaler = 10;
 340              		.loc 1 222 18 is_stmt 0 view .LVU99
 341 0012 1448     		ldr	r0, .L24
 342 0014 4FF08042 		mov	r2, #1073741824
 343 0018 0260     		str	r2, [r0]
 223:Core/Src/main.c ****   htim2.Init.CounterMode = TIM_COUNTERMODE_UP;
 344              		.loc 1 223 3 is_stmt 1 view .LVU100
 223:Core/Src/main.c ****   htim2.Init.CounterMode = TIM_COUNTERMODE_UP;
 345              		.loc 1 223 24 is_stmt 0 view .LVU101
 346 001a 0A22     		movs	r2, #10
 347 001c 4260     		str	r2, [r0, #4]
 224:Core/Src/main.c ****   htim2.Init.Period = 65535;
 348              		.loc 1 224 3 is_stmt 1 view .LVU102
 224:Core/Src/main.c ****   htim2.Init.Period = 65535;
 349              		.loc 1 224 26 is_stmt 0 view .LVU103
 350 001e 8360     		str	r3, [r0, #8]
 225:Core/Src/main.c ****   htim2.Init.ClockDivision = TIM_CLOCKDIVISION_DIV1;
 351              		.loc 1 225 3 is_stmt 1 view .LVU104
 225:Core/Src/main.c ****   htim2.Init.ClockDivision = TIM_CLOCKDIVISION_DIV1;
 352              		.loc 1 225 21 is_stmt 0 view .LVU105
 353 0020 4FF6FF72 		movw	r2, #65535
 354 0024 C260     		str	r2, [r0, #12]
 226:Core/Src/main.c ****   htim2.Init.AutoReloadPreload = TIM_AUTORELOAD_PRELOAD_DISABLE;
 355              		.loc 1 226 3 is_stmt 1 view .LVU106
 226:Core/Src/main.c ****   htim2.Init.AutoReloadPreload = TIM_AUTORELOAD_PRELOAD_DISABLE;
 356              		.loc 1 226 28 is_stmt 0 view .LVU107
 357 0026 0361     		str	r3, [r0, #16]
 227:Core/Src/main.c ****   if (HAL_TIM_Base_Init(&htim2) != HAL_OK)
 358              		.loc 1 227 3 is_stmt 1 view .LVU108
 227:Core/Src/main.c ****   if (HAL_TIM_Base_Init(&htim2) != HAL_OK)
 359              		.loc 1 227 32 is_stmt 0 view .LVU109
 360 0028 8361     		str	r3, [r0, #24]
 228:Core/Src/main.c ****   {
 361              		.loc 1 228 3 is_stmt 1 view .LVU110
 228:Core/Src/main.c ****   {
 362              		.loc 1 228 7 is_stmt 0 view .LVU111
 363 002a FFF7FEFF 		bl	HAL_TIM_Base_Init
 364              	.LVL4:
 228:Core/Src/main.c ****   {
 365              		.loc 1 228 6 view .LVU112
ARM GAS  C:\Users\vladk\AppData\Local\Temp\ccvvBoWu.s 			page 16


 366 002e 90B9     		cbnz	r0, .L21
 232:Core/Src/main.c ****   if (HAL_TIM_ConfigClockSource(&htim2, &sClockSourceConfig) != HAL_OK)
 367              		.loc 1 232 3 is_stmt 1 view .LVU113
 232:Core/Src/main.c ****   if (HAL_TIM_ConfigClockSource(&htim2, &sClockSourceConfig) != HAL_OK)
 368              		.loc 1 232 34 is_stmt 0 view .LVU114
 369 0030 4FF48053 		mov	r3, #4096
 370 0034 0293     		str	r3, [sp, #8]
 233:Core/Src/main.c ****   {
 371              		.loc 1 233 3 is_stmt 1 view .LVU115
 233:Core/Src/main.c ****   {
 372              		.loc 1 233 7 is_stmt 0 view .LVU116
 373 0036 02A9     		add	r1, sp, #8
 374 0038 0A48     		ldr	r0, .L24
 375 003a FFF7FEFF 		bl	HAL_TIM_ConfigClockSource
 376              	.LVL5:
 233:Core/Src/main.c ****   {
 377              		.loc 1 233 6 view .LVU117
 378 003e 60B9     		cbnz	r0, .L22
 237:Core/Src/main.c ****   sMasterConfig.MasterSlaveMode = TIM_MASTERSLAVEMODE_DISABLE;
 379              		.loc 1 237 3 is_stmt 1 view .LVU118
 237:Core/Src/main.c ****   sMasterConfig.MasterSlaveMode = TIM_MASTERSLAVEMODE_DISABLE;
 380              		.loc 1 237 37 is_stmt 0 view .LVU119
 381 0040 0023     		movs	r3, #0
 382 0042 0093     		str	r3, [sp]
 238:Core/Src/main.c ****   if (HAL_TIMEx_MasterConfigSynchronization(&htim2, &sMasterConfig) != HAL_OK)
 383              		.loc 1 238 3 is_stmt 1 view .LVU120
 238:Core/Src/main.c ****   if (HAL_TIMEx_MasterConfigSynchronization(&htim2, &sMasterConfig) != HAL_OK)
 384              		.loc 1 238 33 is_stmt 0 view .LVU121
 385 0044 0193     		str	r3, [sp, #4]
 239:Core/Src/main.c ****   {
 386              		.loc 1 239 3 is_stmt 1 view .LVU122
 239:Core/Src/main.c ****   {
 387              		.loc 1 239 7 is_stmt 0 view .LVU123
 388 0046 6946     		mov	r1, sp
 389 0048 0648     		ldr	r0, .L24
 390 004a FFF7FEFF 		bl	HAL_TIMEx_MasterConfigSynchronization
 391              	.LVL6:
 239:Core/Src/main.c ****   {
 392              		.loc 1 239 6 view .LVU124
 393 004e 30B9     		cbnz	r0, .L23
 247:Core/Src/main.c **** 
 394              		.loc 1 247 1 view .LVU125
 395 0050 07B0     		add	sp, sp, #28
 396              	.LCFI6:
 397              		.cfi_remember_state
 398              		.cfi_def_cfa_offset 4
 399              		@ sp needed
 400 0052 5DF804FB 		ldr	pc, [sp], #4
 401              	.L21:
 402              	.LCFI7:
 403              		.cfi_restore_state
 230:Core/Src/main.c ****   }
 404              		.loc 1 230 5 is_stmt 1 view .LVU126
 405 0056 FFF7FEFF 		bl	Error_Handler
 406              	.LVL7:
 407              	.L22:
 235:Core/Src/main.c ****   }
ARM GAS  C:\Users\vladk\AppData\Local\Temp\ccvvBoWu.s 			page 17


 408              		.loc 1 235 5 view .LVU127
 409 005a FFF7FEFF 		bl	Error_Handler
 410              	.LVL8:
 411              	.L23:
 241:Core/Src/main.c ****   }
 412              		.loc 1 241 5 view .LVU128
 413 005e FFF7FEFF 		bl	Error_Handler
 414              	.LVL9:
 415              	.L25:
 416 0062 00BF     		.align	2
 417              	.L24:
 418 0064 00000000 		.word	.LANCHOR2
 419              		.cfi_endproc
 420              	.LFE68:
 422              		.section	.text.SystemClock_Config,"ax",%progbits
 423              		.align	1
 424              		.global	SystemClock_Config
 425              		.syntax unified
 426              		.thumb
 427              		.thumb_func
 428              		.fpu softvfp
 430              	SystemClock_Config:
 431              	.LFB66:
 133:Core/Src/main.c ****   RCC_OscInitTypeDef RCC_OscInitStruct = {0};
 432              		.loc 1 133 1 view -0
 433              		.cfi_startproc
 434              		@ args = 0, pretend = 0, frame = 64
 435              		@ frame_needed = 0, uses_anonymous_args = 0
 436 0000 00B5     		push	{lr}
 437              	.LCFI8:
 438              		.cfi_def_cfa_offset 4
 439              		.cfi_offset 14, -4
 440 0002 91B0     		sub	sp, sp, #68
 441              	.LCFI9:
 442              		.cfi_def_cfa_offset 72
 134:Core/Src/main.c ****   RCC_ClkInitTypeDef RCC_ClkInitStruct = {0};
 443              		.loc 1 134 3 view .LVU130
 134:Core/Src/main.c ****   RCC_ClkInitTypeDef RCC_ClkInitStruct = {0};
 444              		.loc 1 134 22 is_stmt 0 view .LVU131
 445 0004 2822     		movs	r2, #40
 446 0006 0021     		movs	r1, #0
 447 0008 06A8     		add	r0, sp, #24
 448 000a FFF7FEFF 		bl	memset
 449              	.LVL10:
 135:Core/Src/main.c **** 
 450              		.loc 1 135 3 is_stmt 1 view .LVU132
 135:Core/Src/main.c **** 
 451              		.loc 1 135 22 is_stmt 0 view .LVU133
 452 000e 0023     		movs	r3, #0
 453 0010 0193     		str	r3, [sp, #4]
 454 0012 0293     		str	r3, [sp, #8]
 455 0014 0393     		str	r3, [sp, #12]
 456 0016 0493     		str	r3, [sp, #16]
 457 0018 0593     		str	r3, [sp, #20]
 140:Core/Src/main.c ****   RCC_OscInitStruct.HSIState = RCC_HSI_ON;
 458              		.loc 1 140 3 is_stmt 1 view .LVU134
 140:Core/Src/main.c ****   RCC_OscInitStruct.HSIState = RCC_HSI_ON;
ARM GAS  C:\Users\vladk\AppData\Local\Temp\ccvvBoWu.s 			page 18


 459              		.loc 1 140 36 is_stmt 0 view .LVU135
 460 001a 0223     		movs	r3, #2
 461 001c 0693     		str	r3, [sp, #24]
 141:Core/Src/main.c ****   RCC_OscInitStruct.HSICalibrationValue = RCC_HSICALIBRATION_DEFAULT;
 462              		.loc 1 141 3 is_stmt 1 view .LVU136
 141:Core/Src/main.c ****   RCC_OscInitStruct.HSICalibrationValue = RCC_HSICALIBRATION_DEFAULT;
 463              		.loc 1 141 30 is_stmt 0 view .LVU137
 464 001e 0122     		movs	r2, #1
 465 0020 0A92     		str	r2, [sp, #40]
 142:Core/Src/main.c ****   RCC_OscInitStruct.PLL.PLLState = RCC_PLL_ON;
 466              		.loc 1 142 3 is_stmt 1 view .LVU138
 142:Core/Src/main.c ****   RCC_OscInitStruct.PLL.PLLState = RCC_PLL_ON;
 467              		.loc 1 142 41 is_stmt 0 view .LVU139
 468 0022 1022     		movs	r2, #16
 469 0024 0B92     		str	r2, [sp, #44]
 143:Core/Src/main.c ****   RCC_OscInitStruct.PLL.PLLSource = RCC_PLLSOURCE_HSI_DIV2;
 470              		.loc 1 143 3 is_stmt 1 view .LVU140
 143:Core/Src/main.c ****   RCC_OscInitStruct.PLL.PLLSource = RCC_PLLSOURCE_HSI_DIV2;
 471              		.loc 1 143 34 is_stmt 0 view .LVU141
 472 0026 0D93     		str	r3, [sp, #52]
 144:Core/Src/main.c ****   RCC_OscInitStruct.PLL.PLLMUL = RCC_PLL_MUL5;
 473              		.loc 1 144 3 is_stmt 1 view .LVU142
 145:Core/Src/main.c ****   if (HAL_RCC_OscConfig(&RCC_OscInitStruct) != HAL_OK)
 474              		.loc 1 145 3 view .LVU143
 145:Core/Src/main.c ****   if (HAL_RCC_OscConfig(&RCC_OscInitStruct) != HAL_OK)
 475              		.loc 1 145 32 is_stmt 0 view .LVU144
 476 0028 4FF44023 		mov	r3, #786432
 477 002c 0F93     		str	r3, [sp, #60]
 146:Core/Src/main.c ****   {
 478              		.loc 1 146 3 is_stmt 1 view .LVU145
 146:Core/Src/main.c ****   {
 479              		.loc 1 146 7 is_stmt 0 view .LVU146
 480 002e 06A8     		add	r0, sp, #24
 481 0030 FFF7FEFF 		bl	HAL_RCC_OscConfig
 482              	.LVL11:
 146:Core/Src/main.c ****   {
 483              		.loc 1 146 6 view .LVU147
 484 0034 78B9     		cbnz	r0, .L30
 153:Core/Src/main.c ****                               |RCC_CLOCKTYPE_PCLK1|RCC_CLOCKTYPE_PCLK2;
 485              		.loc 1 153 3 is_stmt 1 view .LVU148
 153:Core/Src/main.c ****                               |RCC_CLOCKTYPE_PCLK1|RCC_CLOCKTYPE_PCLK2;
 486              		.loc 1 153 31 is_stmt 0 view .LVU149
 487 0036 0F23     		movs	r3, #15
 488 0038 0193     		str	r3, [sp, #4]
 155:Core/Src/main.c ****   RCC_ClkInitStruct.AHBCLKDivider = RCC_SYSCLK_DIV2;
 489              		.loc 1 155 3 is_stmt 1 view .LVU150
 155:Core/Src/main.c ****   RCC_ClkInitStruct.AHBCLKDivider = RCC_SYSCLK_DIV2;
 490              		.loc 1 155 34 is_stmt 0 view .LVU151
 491 003a 0223     		movs	r3, #2
 492 003c 0293     		str	r3, [sp, #8]
 156:Core/Src/main.c ****   RCC_ClkInitStruct.APB1CLKDivider = RCC_HCLK_DIV1;
 493              		.loc 1 156 3 is_stmt 1 view .LVU152
 156:Core/Src/main.c ****   RCC_ClkInitStruct.APB1CLKDivider = RCC_HCLK_DIV1;
 494              		.loc 1 156 35 is_stmt 0 view .LVU153
 495 003e 8023     		movs	r3, #128
 496 0040 0393     		str	r3, [sp, #12]
 157:Core/Src/main.c ****   RCC_ClkInitStruct.APB2CLKDivider = RCC_HCLK_DIV1;
ARM GAS  C:\Users\vladk\AppData\Local\Temp\ccvvBoWu.s 			page 19


 497              		.loc 1 157 3 is_stmt 1 view .LVU154
 157:Core/Src/main.c ****   RCC_ClkInitStruct.APB2CLKDivider = RCC_HCLK_DIV1;
 498              		.loc 1 157 36 is_stmt 0 view .LVU155
 499 0042 0021     		movs	r1, #0
 500 0044 0491     		str	r1, [sp, #16]
 158:Core/Src/main.c **** 
 501              		.loc 1 158 3 is_stmt 1 view .LVU156
 158:Core/Src/main.c **** 
 502              		.loc 1 158 36 is_stmt 0 view .LVU157
 503 0046 0591     		str	r1, [sp, #20]
 160:Core/Src/main.c ****   {
 504              		.loc 1 160 3 is_stmt 1 view .LVU158
 160:Core/Src/main.c ****   {
 505              		.loc 1 160 7 is_stmt 0 view .LVU159
 506 0048 01A8     		add	r0, sp, #4
 507 004a FFF7FEFF 		bl	HAL_RCC_ClockConfig
 508              	.LVL12:
 160:Core/Src/main.c ****   {
 509              		.loc 1 160 6 view .LVU160
 510 004e 20B9     		cbnz	r0, .L31
 164:Core/Src/main.c **** 
 511              		.loc 1 164 1 view .LVU161
 512 0050 11B0     		add	sp, sp, #68
 513              	.LCFI10:
 514              		.cfi_remember_state
 515              		.cfi_def_cfa_offset 4
 516              		@ sp needed
 517 0052 5DF804FB 		ldr	pc, [sp], #4
 518              	.L30:
 519              	.LCFI11:
 520              		.cfi_restore_state
 148:Core/Src/main.c ****   }
 521              		.loc 1 148 5 is_stmt 1 view .LVU162
 522 0056 FFF7FEFF 		bl	Error_Handler
 523              	.LVL13:
 524              	.L31:
 162:Core/Src/main.c ****   }
 525              		.loc 1 162 5 view .LVU163
 526 005a FFF7FEFF 		bl	Error_Handler
 527              	.LVL14:
 528              		.cfi_endproc
 529              	.LFE66:
 531              		.section	.text.main,"ax",%progbits
 532              		.align	1
 533              		.global	main
 534              		.syntax unified
 535              		.thumb
 536              		.thumb_func
 537              		.fpu softvfp
 539              	main:
 540              	.LFB65:
  70:Core/Src/main.c ****   /* USER CODE BEGIN 1 */
 541              		.loc 1 70 1 view -0
 542              		.cfi_startproc
 543              		@ Volatile: function does not return.
 544              		@ args = 0, pretend = 0, frame = 8
 545              		@ frame_needed = 0, uses_anonymous_args = 0
ARM GAS  C:\Users\vladk\AppData\Local\Temp\ccvvBoWu.s 			page 20


 546 0000 00B5     		push	{lr}
 547              	.LCFI12:
 548              		.cfi_def_cfa_offset 4
 549              		.cfi_offset 14, -4
 550 0002 83B0     		sub	sp, sp, #12
 551              	.LCFI13:
 552              		.cfi_def_cfa_offset 16
  78:Core/Src/main.c **** 
 553              		.loc 1 78 3 view .LVU165
 554 0004 FFF7FEFF 		bl	HAL_Init
 555              	.LVL15:
  85:Core/Src/main.c **** 
 556              		.loc 1 85 3 view .LVU166
 557 0008 FFF7FEFF 		bl	SystemClock_Config
 558              	.LVL16:
  92:Core/Src/main.c ****   MX_SPI1_Init();
 559              		.loc 1 92 3 view .LVU167
 560 000c FFF7FEFF 		bl	MX_GPIO_Init
 561              	.LVL17:
  93:Core/Src/main.c ****   MX_TIM2_Init();
 562              		.loc 1 93 3 view .LVU168
 563 0010 FFF7FEFF 		bl	MX_SPI1_Init
 564              	.LVL18:
  94:Core/Src/main.c ****   HAL_GPIO_WritePin(GPIOA, GPIO_PIN_3, 1);
 565              		.loc 1 94 3 view .LVU169
 566 0014 FFF7FEFF 		bl	MX_TIM2_Init
 567              	.LVL19:
  95:Core/Src/main.c ****   LoRa_Init();
 568              		.loc 1 95 3 view .LVU170
 569 0018 204C     		ldr	r4, .L35
 570 001a 0122     		movs	r2, #1
 571 001c 0821     		movs	r1, #8
 572 001e 2046     		mov	r0, r4
 573 0020 FFF7FEFF 		bl	HAL_GPIO_WritePin
 574              	.LVL20:
  96:Core/Src/main.c ****   /* USER CODE BEGIN 2 */
 575              		.loc 1 96 3 view .LVU171
 576 0024 FFF7FEFF 		bl	LoRa_Init
 577              	.LVL21:
 104:Core/Src/main.c ****     // init sx126x
 578              		.loc 1 104 5 view .LVU172
 104:Core/Src/main.c ****     // init sx126x
 579              		.loc 1 104 13 is_stmt 0 view .LVU173
 580 0028 43F21343 		movw	r3, #13331
 581 002c ADF80430 		strh	r3, [sp, #4]	@ movhi
 106:Core/Src/main.c ****     sx126x_Init(&hspi1, &modem);
 582              		.loc 1 106 5 is_stmt 1 view .LVU174
 583 0030 0022     		movs	r2, #0
 584 0032 0821     		movs	r1, #8
 585 0034 2046     		mov	r0, r4
 586 0036 FFF7FEFF 		bl	HAL_GPIO_WritePin
 587              	.LVL22:
 107:Core/Src/main.c ****     HAL_GPIO_WritePin(GPIOA, GPIO_PIN_3, 1);
 588              		.loc 1 107 5 view .LVU175
 589 003a 194E     		ldr	r6, .L35+4
 590 003c 194D     		ldr	r5, .L35+8
 591 003e 3146     		mov	r1, r6
ARM GAS  C:\Users\vladk\AppData\Local\Temp\ccvvBoWu.s 			page 21


 592 0040 2846     		mov	r0, r5
 593 0042 FFF7FEFF 		bl	sx126x_Init
 594              	.LVL23:
 108:Core/Src/main.c **** 
 595              		.loc 1 108 5 view .LVU176
 596 0046 0122     		movs	r2, #1
 597 0048 0821     		movs	r1, #8
 598 004a 2046     		mov	r0, r4
 599 004c FFF7FEFF 		bl	HAL_GPIO_WritePin
 600              	.LVL24:
 110:Core/Src/main.c ****     sx126x_SendData(&hspi1, &modem, data, 2);
 601              		.loc 1 110 5 view .LVU177
 602 0050 0022     		movs	r2, #0
 603 0052 0821     		movs	r1, #8
 604 0054 2046     		mov	r0, r4
 605 0056 FFF7FEFF 		bl	HAL_GPIO_WritePin
 606              	.LVL25:
 111:Core/Src/main.c ****     HAL_GPIO_WritePin(GPIOA, GPIO_PIN_3, 1);
 607              		.loc 1 111 5 view .LVU178
 608 005a 0223     		movs	r3, #2
 609 005c 01AA     		add	r2, sp, #4
 610 005e 3146     		mov	r1, r6
 611 0060 2846     		mov	r0, r5
 612 0062 FFF7FEFF 		bl	sx126x_SendData
 613              	.LVL26:
 112:Core/Src/main.c ****   while (1)
 614              		.loc 1 112 5 view .LVU179
 615 0066 0122     		movs	r2, #1
 616 0068 0821     		movs	r1, #8
 617 006a 2046     		mov	r0, r4
 618 006c FFF7FEFF 		bl	HAL_GPIO_WritePin
 619              	.LVL27:
 620              	.L33:
 113:Core/Src/main.c ****   {
 621              		.loc 1 113 3 discriminator 1 view .LVU180
 116:Core/Src/main.c ****     sx126x_SendData(&hspi1, &modem, data, 2);
 622              		.loc 1 116 5 discriminator 1 view .LVU181
 623 0070 0A4C     		ldr	r4, .L35
 624 0072 0022     		movs	r2, #0
 625 0074 0821     		movs	r1, #8
 626 0076 2046     		mov	r0, r4
 627 0078 FFF7FEFF 		bl	HAL_GPIO_WritePin
 628              	.LVL28:
 117:Core/Src/main.c ****     HAL_GPIO_WritePin(GPIOA, GPIO_PIN_3, 1);
 629              		.loc 1 117 5 discriminator 1 view .LVU182
 630 007c 0223     		movs	r3, #2
 631 007e 01AA     		add	r2, sp, #4
 632 0080 0749     		ldr	r1, .L35+4
 633 0082 0848     		ldr	r0, .L35+8
 634 0084 FFF7FEFF 		bl	sx126x_SendData
 635              	.LVL29:
 118:Core/Src/main.c ****     HAL_Delay(1000);
 636              		.loc 1 118 5 discriminator 1 view .LVU183
 637 0088 0122     		movs	r2, #1
 638 008a 0821     		movs	r1, #8
 639 008c 2046     		mov	r0, r4
 640 008e FFF7FEFF 		bl	HAL_GPIO_WritePin
ARM GAS  C:\Users\vladk\AppData\Local\Temp\ccvvBoWu.s 			page 22


 641              	.LVL30:
 119:Core/Src/main.c ****     /* USER CODE BEGIN 3 */
 642              		.loc 1 119 5 discriminator 1 view .LVU184
 643 0092 4FF47A70 		mov	r0, #1000
 644 0096 FFF7FEFF 		bl	HAL_Delay
 645              	.LVL31:
 113:Core/Src/main.c ****   {
 646              		.loc 1 113 9 discriminator 1 view .LVU185
 647 009a E9E7     		b	.L33
 648              	.L36:
 649              		.align	2
 650              	.L35:
 651 009c 00080140 		.word	1073809408
 652 00a0 00000000 		.word	.LANCHOR0
 653 00a4 00000000 		.word	.LANCHOR1
 654              		.cfi_endproc
 655              	.LFE65:
 657              		.global	modem
 658              		.global	htim2
 659              		.global	hspi1
 660              		.section	.bss.hspi1,"aw",%nobits
 661              		.align	2
 662              		.set	.LANCHOR1,. + 0
 665              	hspi1:
 666 0000 00000000 		.space	88
 666      00000000 
 666      00000000 
 666      00000000 
 666      00000000 
 667              		.section	.bss.htim2,"aw",%nobits
 668              		.align	2
 669              		.set	.LANCHOR2,. + 0
 672              	htim2:
 673 0000 00000000 		.space	72
 673      00000000 
 673      00000000 
 673      00000000 
 673      00000000 
 674              		.section	.bss.modem,"aw",%nobits
 675              		.align	2
 676              		.set	.LANCHOR0,. + 0
 679              	modem:
 680 0000 00000000 		.space	24
 680      00000000 
 680      00000000 
 680      00000000 
 680      00000000 
 681              		.text
 682              	.Letext0:
 683              		.file 3 "d:\\vscode\\arm_none_eabi\\10_2020-q4-major\\arm-none-eabi\\include\\machine\\_default_ty
 684              		.file 4 "d:\\vscode\\arm_none_eabi\\10_2020-q4-major\\arm-none-eabi\\include\\sys\\_stdint.h"
 685              		.file 5 "Drivers/CMSIS/Device/ST/STM32F1xx/Include/stm32f103x6.h"
 686              		.file 6 "Drivers/STM32F1xx_HAL_Driver/Inc/stm32f1xx_hal_def.h"
 687              		.file 7 "Drivers/STM32F1xx_HAL_Driver/Inc/stm32f1xx_hal_rcc.h"
 688              		.file 8 "Drivers/STM32F1xx_HAL_Driver/Inc/stm32f1xx_hal_rcc_ex.h"
 689              		.file 9 "Drivers/STM32F1xx_HAL_Driver/Inc/stm32f1xx_hal_gpio.h"
 690              		.file 10 "Drivers/STM32F1xx_HAL_Driver/Inc/stm32f1xx_hal_dma.h"
ARM GAS  C:\Users\vladk\AppData\Local\Temp\ccvvBoWu.s 			page 23


 691              		.file 11 "Drivers/STM32F1xx_HAL_Driver/Inc/stm32f1xx_hal_spi.h"
 692              		.file 12 "Drivers/STM32F1xx_HAL_Driver/Inc/stm32f1xx_hal_tim.h"
 693              		.file 13 "Core/MyLib/Inc/sx126x.h"
 694              		.file 14 "Drivers/STM32F1xx_HAL_Driver/Inc/stm32f1xx_hal_tim_ex.h"
 695              		.file 15 "Drivers/STM32F1xx_HAL_Driver/Inc/stm32f1xx_hal.h"
 696              		.file 16 "<built-in>"
ARM GAS  C:\Users\vladk\AppData\Local\Temp\ccvvBoWu.s 			page 24

