ARM GAS  C:\Users\vladk\AppData\Local\Temp\ccklnA5P.s 			page 1


   1              		.cpu cortex-m3
   2              		.eabi_attribute 20, 1
   3              		.eabi_attribute 21, 1
   4              		.eabi_attribute 23, 3
   5              		.eabi_attribute 24, 1
   6              		.eabi_attribute 25, 1
   7              		.eabi_attribute 26, 1
   8              		.eabi_attribute 30, 1
   9              		.eabi_attribute 34, 1
  10              		.eabi_attribute 18, 4
  11              		.file	"sx126x.c"
  12              		.text
  13              	.Ltext0:
  14              		.cfi_sections	.debug_frame
  15              		.section	.text.getAnswer,"ax",%progbits
  16              		.align	1
  17              		.global	getAnswer
  18              		.arch armv7-m
  19              		.syntax unified
  20              		.thumb
  21              		.thumb_func
  22              		.fpu softvfp
  24              	getAnswer:
  25              	.LVL0:
  26              	.LFB88:
  27              		.file 1 "Core/MyLib/Src/sx126x.c"
   1:Core/MyLib/Src/sx126x.c **** #include "sx126x.h"
   2:Core/MyLib/Src/sx126x.c **** #include "main.h"
   3:Core/MyLib/Src/sx126x.c **** #include "gpio_ctrl.h"
   4:Core/MyLib/Src/sx126x.c **** 
   5:Core/MyLib/Src/sx126x.c **** // sx126x_config lora;
   6:Core/MyLib/Src/sx126x.c **** 
   7:Core/MyLib/Src/sx126x.c **** 
   8:Core/MyLib/Src/sx126x.c **** void sx126x_Init(SPI_HandleTypeDef* hspi, sx126x_cfg* modem){
   9:Core/MyLib/Src/sx126x.c ****     SetStandby(hspi, modem);    // 1
  10:Core/MyLib/Src/sx126x.c ****     SetPacketType(hspi, modem);
  11:Core/MyLib/Src/sx126x.c ****     Calibrate(hspi, modem, 0xFF);   //2
  12:Core/MyLib/Src/sx126x.c ****     SetRfFrequency(hspi, modem);    //3
  13:Core/MyLib/Src/sx126x.c ****     SetPaConfig(hspi, 0x02, 0x03, 0x00, 0x01);  //4
  14:Core/MyLib/Src/sx126x.c ****     SetTxParams(hspi, modem);   //5
  15:Core/MyLib/Src/sx126x.c ****     SetModulationParams(hspi, modem);   //6
  16:Core/MyLib/Src/sx126x.c ****     SetPacketParams(hspi, modem->PreambleLen, modem->HeaderType, modem->payloadLength, modem->crcTy
  17:Core/MyLib/Src/sx126x.c ****     // GetDeviceErrors(hspi);
  18:Core/MyLib/Src/sx126x.c ****     // uint8_t extra_tx_params[3] = {0x08, 0x89, 0x01};
  19:Core/MyLib/Src/sx126x.c ****     // SetDioIrqParams(hspi, 0x3F, 1 << 1, 0, 0);
  20:Core/MyLib/Src/sx126x.c ****     // WriteReg(hspi, extra_tx_params, 3);
  21:Core/MyLib/Src/sx126x.c ****     SetSyncWord(hspi, modem);   //8
  22:Core/MyLib/Src/sx126x.c ****     // SetBufferBaseAddress(hspi, modem);
  23:Core/MyLib/Src/sx126x.c **** }
  24:Core/MyLib/Src/sx126x.c **** void sx126x_SendData(SPI_HandleTypeDef* hspi, sx126x_cfg* modem, uint8_t* data, uint16_t data_len){
  25:Core/MyLib/Src/sx126x.c ****     uint8_t txBaseAddress = 0;
  26:Core/MyLib/Src/sx126x.c ****     uint8_t rxBaseAddress = txBaseAddress + 0xFF;
  27:Core/MyLib/Src/sx126x.c ****     setBufferBaseAddress(hspi, txBaseAddress, rxBaseAddress); //1
  28:Core/MyLib/Src/sx126x.c ****     fixLoRaBw500(hspi, modem->BandWidth); //2
  29:Core/MyLib/Src/sx126x.c ****     WriteBuffer(hspi, data, data_len, &modem->bufferIndex); //3
  30:Core/MyLib/Src/sx126x.c ****     SetPacketParams(hspi, modem->PreambleLen, modem->HeaderType, modem->payloadLength, modem->crcTy
  31:Core/MyLib/Src/sx126x.c ****     SetTx(hspi, 1); //5
ARM GAS  C:\Users\vladk\AppData\Local\Temp\ccklnA5P.s 			page 2


  32:Core/MyLib/Src/sx126x.c ****     // while(!modem->IrqStatus){
  33:Core/MyLib/Src/sx126x.c ****     //     GetIrqStatus(hspi, modem);
  34:Core/MyLib/Src/sx126x.c ****     // }
  35:Core/MyLib/Src/sx126x.c ****     // ClearIrqStatus(hspi, 0x01);
  36:Core/MyLib/Src/sx126x.c ****     // uint8_t ans[1] ={0};
  37:Core/MyLib/Src/sx126x.c ****     // getAnswer(hspi, OPCODE_GET_STATUS, ans, 1);
  38:Core/MyLib/Src/sx126x.c **** }
  39:Core/MyLib/Src/sx126x.c **** // Режим состояния готовности
  40:Core/MyLib/Src/sx126x.c **** void SetStandby(SPI_HandleTypeDef* hspi, sx126x_cfg* modem){
  41:Core/MyLib/Src/sx126x.c ****     sendOpcode(hspi, OPCODE_SET_STANDY, &modem->StdbyConfig, 1);
  42:Core/MyLib/Src/sx126x.c **** }
  43:Core/MyLib/Src/sx126x.c **** void fixLoRaBw500(SPI_HandleTypeDef* hspi, uint8_t bw){
  44:Core/MyLib/Src/sx126x.c ****     uint8_t packetType;
  45:Core/MyLib/Src/sx126x.c ****     getPacketType(hspi, &packetType);
  46:Core/MyLib/Src/sx126x.c ****     uint8_t value;
  47:Core/MyLib/Src/sx126x.c ****     ReadReg(hspi, SX126X_REG_TX_MODULATION, &value, 1);
  48:Core/MyLib/Src/sx126x.c ****     if ((packetType == SX126X_PACKET_TYPE_LORA) && (bw == SX126X_BW_500)) value &= 0xFB;
  49:Core/MyLib/Src/sx126x.c ****     else value |= 0x04;
  50:Core/MyLib/Src/sx126x.c ****     WriteReg(hspi, SX126X_REG_TX_MODULATION, &value, 1);
  51:Core/MyLib/Src/sx126x.c **** }
  52:Core/MyLib/Src/sx126x.c **** void getPacketType(SPI_HandleTypeDef* hspi, uint8_t* packetType){
  53:Core/MyLib/Src/sx126x.c ****     uint8_t buf[2];
  54:Core/MyLib/Src/sx126x.c ****     getAnswer(hspi, OPCODE_SET_PACKET_TYPE, buf, 2);
  55:Core/MyLib/Src/sx126x.c ****     *packetType = buf[1];
  56:Core/MyLib/Src/sx126x.c **** }
  57:Core/MyLib/Src/sx126x.c **** // Устанавливаеv модуль в режим LoRa или в FSK
  58:Core/MyLib/Src/sx126x.c **** void SetPacketType(SPI_HandleTypeDef* hspi, sx126x_cfg* modem){
  59:Core/MyLib/Src/sx126x.c ****     sendOpcode(hspi, OPCODE_SET_PACKET_TYPE, &modem->PacketType, 1);
  60:Core/MyLib/Src/sx126x.c **** }
  61:Core/MyLib/Src/sx126x.c **** // Частота передатчика
  62:Core/MyLib/Src/sx126x.c **** void SetRfFrequency(SPI_HandleTypeDef* hspi, sx126x_cfg* modem){
  63:Core/MyLib/Src/sx126x.c ****     uint8_t calFreq[2];
  64:Core/MyLib/Src/sx126x.c ****     if (modem->RfFreq < 828000000){     // 779 - 787 Mhz
  65:Core/MyLib/Src/sx126x.c ****         calFreq[0] = SX126X_CAL_IMG_779;
  66:Core/MyLib/Src/sx126x.c ****         calFreq[1] = SX126X_CAL_IMG_787;
  67:Core/MyLib/Src/sx126x.c ****     }
  68:Core/MyLib/Src/sx126x.c ****     else if (modem->RfFreq < 877000000) {   // 863 - 870 Mhz
  69:Core/MyLib/Src/sx126x.c ****         calFreq[0] = SX126X_CAL_IMG_863;
  70:Core/MyLib/Src/sx126x.c ****         calFreq[1] = SX126X_CAL_IMG_870;
  71:Core/MyLib/Src/sx126x.c ****     }
  72:Core/MyLib/Src/sx126x.c ****     else if (modem->RfFreq < 1100000000) {  // 902 - 928 Mhz
  73:Core/MyLib/Src/sx126x.c ****         calFreq[0] = SX126X_CAL_IMG_902;
  74:Core/MyLib/Src/sx126x.c ****         calFreq[1] = SX126X_CAL_IMG_928;
  75:Core/MyLib/Src/sx126x.c ****     }
  76:Core/MyLib/Src/sx126x.c ****     uint32_t rfFreq = ((uint64_t)modem->RfFreq << 25 / 32000000);  // RfFreq = Frequency * 2^25 / 3
  77:Core/MyLib/Src/sx126x.c ****     uint8_t data[4] = {(rfFreq >> 24)  & 0xFF, (rfFreq >> 16) & 0xFF, (rfFreq >> 8) & 0xFF, rfFreq 
  78:Core/MyLib/Src/sx126x.c ****     CalibrateImage(hspi, calFreq[0], calFreq[1]);
  79:Core/MyLib/Src/sx126x.c ****     sendOpcode(hspi, OPCODE_SET_RF_FREQUENCY, data, 4);
  80:Core/MyLib/Src/sx126x.c **** }
  81:Core/MyLib/Src/sx126x.c ****  void setBufferBaseAddress(SPI_HandleTypeDef* hspi, uint8_t txBaseAddress, uint8_t rxBaseAddress){
  82:Core/MyLib/Src/sx126x.c ****     uint8_t buf[2];
  83:Core/MyLib/Src/sx126x.c ****     buf[0] = txBaseAddress;
  84:Core/MyLib/Src/sx126x.c ****     buf[1] = rxBaseAddress;
  85:Core/MyLib/Src/sx126x.c ****     sendOpcode(hspi, OPCODE_SET_BUFER_BASE_ADDRESS, buf, 2);
  86:Core/MyLib/Src/sx126x.c ****  }
  87:Core/MyLib/Src/sx126x.c **** // Усилитель мощности
  88:Core/MyLib/Src/sx126x.c **** void SetPaConfig(SPI_HandleTypeDef* hspi, uint8_t paDutyCycle, uint8_t hpMax, uint8_t deviceSel, ui
ARM GAS  C:\Users\vladk\AppData\Local\Temp\ccklnA5P.s 			page 3


  89:Core/MyLib/Src/sx126x.c ****     uint8_t buf[4];
  90:Core/MyLib/Src/sx126x.c ****     buf[0] = paDutyCycle;
  91:Core/MyLib/Src/sx126x.c ****     buf[1] = hpMax;
  92:Core/MyLib/Src/sx126x.c ****     buf[2] = deviceSel;
  93:Core/MyLib/Src/sx126x.c ****     buf[3] = paLut;
  94:Core/MyLib/Src/sx126x.c ****     sendOpcode(hspi, OPCODE_CALIBRATE, buf, 4);
  95:Core/MyLib/Src/sx126x.c **** }
  96:Core/MyLib/Src/sx126x.c **** // Каллибровка
  97:Core/MyLib/Src/sx126x.c **** void Calibrate(SPI_HandleTypeDef* hspi, sx126x_cfg* modem, uint8_t calibParam){
  98:Core/MyLib/Src/sx126x.c ****     SetStandby(hspi, modem);
  99:Core/MyLib/Src/sx126x.c ****     sendOpcode(hspi, OPCODE_CALIBRATE, &calibParam, 1);
 100:Core/MyLib/Src/sx126x.c **** }
 101:Core/MyLib/Src/sx126x.c **** // Каллибровка изображения
 102:Core/MyLib/Src/sx126x.c **** void CalibrateImage(SPI_HandleTypeDef* hspi, uint8_t freq1, uint8_t freq2){
 103:Core/MyLib/Src/sx126x.c ****     uint8_t buf[2];
 104:Core/MyLib/Src/sx126x.c ****     buf[0] = freq1;
 105:Core/MyLib/Src/sx126x.c ****     buf[1] = freq2;
 106:Core/MyLib/Src/sx126x.c ****     sendOpcode(hspi, OPCODE_CALIBRATE_IMAGE, buf, 2);
 107:Core/MyLib/Src/sx126x.c **** }
 108:Core/MyLib/Src/sx126x.c **** 
 109:Core/MyLib/Src/sx126x.c **** // Выходная мощность и время линейного изменения
 110:Core/MyLib/Src/sx126x.c **** void SetTxParams(SPI_HandleTypeDef* hspi, sx126x_cfg* modem){
 111:Core/MyLib/Src/sx126x.c ****     uint8_t TxParams[2] = {modem->Power, modem->RampTime};
 112:Core/MyLib/Src/sx126x.c ****     sendOpcode(hspi, OPCODE_SET_TX_PARAMS, TxParams, 2);
 113:Core/MyLib/Src/sx126x.c **** }
 114:Core/MyLib/Src/sx126x.c **** // Устанавливает место хранения буффера
 115:Core/MyLib/Src/sx126x.c **** void SetBufferBaseAddress(SPI_HandleTypeDef* hspi, sx126x_cfg* modem){
 116:Core/MyLib/Src/sx126x.c ****     uint8_t BaseAdress[2] = {modem->TX_Base_Address, modem->RX_Base_Address};
 117:Core/MyLib/Src/sx126x.c ****     sendOpcode(hspi, OPCODE_SET_BUFFER_BASE_ADDR, BaseAdress, 2);
 118:Core/MyLib/Src/sx126x.c **** }
 119:Core/MyLib/Src/sx126x.c **** // Параметры модуляции
 120:Core/MyLib/Src/sx126x.c **** void SetModulationParams(SPI_HandleTypeDef* hspi, sx126x_cfg* modem){
 121:Core/MyLib/Src/sx126x.c ****     uint8_t ModulationParams[8] = {modem->spredingFactor, modem->BandWidth, modem->crcRate, modem->
 122:Core/MyLib/Src/sx126x.c ****     sendOpcode(hspi, OPCODE_SET_MODULATION_PARAMS, ModulationParams, 8);
 123:Core/MyLib/Src/sx126x.c **** }
 124:Core/MyLib/Src/sx126x.c **** // Слово синхронизации
 125:Core/MyLib/Src/sx126x.c **** void SetSyncWord(SPI_HandleTypeDef* hspi, sx126x_cfg* modem){
 126:Core/MyLib/Src/sx126x.c ****     uint16_t adress = 0x0740;
 127:Core/MyLib/Src/sx126x.c ****     uint8_t data[2] = {modem->SyncWord >> 8, modem->SyncWord & 0xFF};
 128:Core/MyLib/Src/sx126x.c ****     WriteReg(hspi, adress, data, 2);
 129:Core/MyLib/Src/sx126x.c **** }
 130:Core/MyLib/Src/sx126x.c **** // Получить статус отправки данных
 131:Core/MyLib/Src/sx126x.c **** void GetIrqStatus(SPI_HandleTypeDef* hspi, sx126x_cfg* modem){
 132:Core/MyLib/Src/sx126x.c ****     uint8_t buf[3] = {0};
 133:Core/MyLib/Src/sx126x.c ****     getAnswer(hspi, OPCODE_GET_IRQ_STATUS, buf, 3);
 134:Core/MyLib/Src/sx126x.c ****     for(uint8_t i = 0; i < 8; i++)
 135:Core/MyLib/Src/sx126x.c ****         *((uint8_t *)(&(modem->IrqStatus)) + i) = (buf[2] >> i) & 0x01;
 136:Core/MyLib/Src/sx126x.c ****     *((uint8_t *)(&(modem->IrqStatus)) + 8) = (buf[1] >> 0) & 0x01;
 137:Core/MyLib/Src/sx126x.c ****     *((uint8_t *)(&(modem->IrqStatus)) + 9) = (buf[1] >> 1) & 0x01;
 138:Core/MyLib/Src/sx126x.c **** }
 139:Core/MyLib/Src/sx126x.c **** // Запись в регистр
 140:Core/MyLib/Src/sx126x.c **** void WriteReg(SPI_HandleTypeDef* hspi, uint16_t adress, uint8_t* data, uint16_t len){
 141:Core/MyLib/Src/sx126x.c ****     uint8_t buf[len + 2];
 142:Core/MyLib/Src/sx126x.c ****     buf[0] = adress >> 8;
 143:Core/MyLib/Src/sx126x.c ****     buf[1] = adress & 0xFF;
 144:Core/MyLib/Src/sx126x.c ****     for(uint8_t i; i < len; i++) buf[i + 2] = data[i];
 145:Core/MyLib/Src/sx126x.c ****     sendOpcode(hspi, OPCODE_WRITE_REGISTER, buf, len);
ARM GAS  C:\Users\vladk\AppData\Local\Temp\ccklnA5P.s 			page 4


 146:Core/MyLib/Src/sx126x.c **** }
 147:Core/MyLib/Src/sx126x.c **** // Чтение с регистра
 148:Core/MyLib/Src/sx126x.c **** void ReadReg(SPI_HandleTypeDef* hspi, uint16_t adress, uint8_t* data, uint16_t len){
 149:Core/MyLib/Src/sx126x.c ****     uint8_t addr[2];
 150:Core/MyLib/Src/sx126x.c ****     addr[0] = adress >> 8;
 151:Core/MyLib/Src/sx126x.c ****     addr[1] = adress & 0xFF;
 152:Core/MyLib/Src/sx126x.c ****     sendOpcodeAddressReadReg(hspi, OPCODE_READ_REGISTER, data, len, addr);
 153:Core/MyLib/Src/sx126x.c **** }
 154:Core/MyLib/Src/sx126x.c **** // Определяет формат кадра
 155:Core/MyLib/Src/sx126x.c **** void SetPacketParams(SPI_HandleTypeDef* hspi, uint16_t preamble_len, uint8_t header_type,
 156:Core/MyLib/Src/sx126x.c ****                             uint8_t payload_len, uint8_t crc_type, uint8_t invert_iq){
 157:Core/MyLib/Src/sx126x.c ****     uint8_t buf[9] = {0x00, 0x00, 0x00, 0x00, 0x00, 0x00, 0x00, 0x00, 0x00};
 158:Core/MyLib/Src/sx126x.c ****     buf[0] = preamble_len >> 8;
 159:Core/MyLib/Src/sx126x.c ****     buf[1] = preamble_len & 0xFF;
 160:Core/MyLib/Src/sx126x.c ****     buf[2] = header_type;
 161:Core/MyLib/Src/sx126x.c ****     buf[3] = payload_len;
 162:Core/MyLib/Src/sx126x.c ****     buf[4] = crc_type;
 163:Core/MyLib/Src/sx126x.c ****     buf[5] = invert_iq;
 164:Core/MyLib/Src/sx126x.c ****     sendOpcode(hspi, OPCODE_SET_PACKET_PARAMS, buf, 8);
 165:Core/MyLib/Src/sx126x.c **** }
 166:Core/MyLib/Src/sx126x.c **** // Запись в буфер
 167:Core/MyLib/Src/sx126x.c **** void WriteBuffer(SPI_HandleTypeDef* hspi, uint8_t* data,  uint16_t len, uint8_t* offset){
 168:Core/MyLib/Src/sx126x.c ****     uint8_t buf[len +1];
 169:Core/MyLib/Src/sx126x.c ****     buf[0] = *offset;
 170:Core/MyLib/Src/sx126x.c ****     for(uint8_t i = 0; i < len; i++) buf[i + 1] = data[i];
 171:Core/MyLib/Src/sx126x.c ****     sendOpcode(hspi, OPCODE_WRITE_BUFFER, buf, len + 1);
 172:Core/MyLib/Src/sx126x.c ****     (*offset) += len;
 173:Core/MyLib/Src/sx126x.c **** }
 174:Core/MyLib/Src/sx126x.c **** // Усановка в режим передатчика
 175:Core/MyLib/Src/sx126x.c **** void SetTx(SPI_HandleTypeDef* hspi, uint16_t timeout_ms){
 176:Core/MyLib/Src/sx126x.c ****     uint32_t timeout = (uint32_t)(timeout_ms / 0.015625);
 177:Core/MyLib/Src/sx126x.c ****     uint8_t data[3] = {(timeout >> 16) & 0xFF, (timeout >> 8) & 0xFF, timeout & 0xFF};
 178:Core/MyLib/Src/sx126x.c ****     sendOpcode(hspi, OPCODE_SET_TX, data, 3);
 179:Core/MyLib/Src/sx126x.c **** }
 180:Core/MyLib/Src/sx126x.c **** // Ставим в 1 бит прерывания
 181:Core/MyLib/Src/sx126x.c **** void ClearIrqStatus(SPI_HandleTypeDef* hspi, uint16_t param){
 182:Core/MyLib/Src/sx126x.c ****     uint8_t data[2] = {(param >> 8) & 0xFF, param & 0xFF};
 183:Core/MyLib/Src/sx126x.c ****     sendOpcode(hspi, OPCODE_CLEAR_IRQ_STATUS, data, 2);
 184:Core/MyLib/Src/sx126x.c **** }
 185:Core/MyLib/Src/sx126x.c **** // Вернуть ошибку устройства
 186:Core/MyLib/Src/sx126x.c **** uint16_t GetDeviceErrors(SPI_HandleTypeDef* hspi){
 187:Core/MyLib/Src/sx126x.c ****     uint8_t buf[3] = {0};
 188:Core/MyLib/Src/sx126x.c ****     getAnswer(hspi, OPCODE_GET_DEVICE_ERRORS, buf, 3);
 189:Core/MyLib/Src/sx126x.c ****     return (uint16_t)((buf[1] << 8) | buf[2]);
 190:Core/MyLib/Src/sx126x.c **** }
 191:Core/MyLib/Src/sx126x.c **** // Получить ответ от устройства
 192:Core/MyLib/Src/sx126x.c **** void getAnswer(SPI_HandleTypeDef* hspi, uint8_t opCode, uint8_t* buf, uint16_t len){
  28              		.loc 1 192 84 view -0
  29              		.cfi_startproc
  30              		@ args = 0, pretend = 0, frame = 8
  31              		@ frame_needed = 0, uses_anonymous_args = 0
  32              		.loc 1 192 84 is_stmt 0 view .LVU1
  33 0000 F0B5     		push	{r4, r5, r6, r7, lr}
  34              	.LCFI0:
  35              		.cfi_def_cfa_offset 20
  36              		.cfi_offset 4, -20
  37              		.cfi_offset 5, -16
ARM GAS  C:\Users\vladk\AppData\Local\Temp\ccklnA5P.s 			page 5


  38              		.cfi_offset 6, -12
  39              		.cfi_offset 7, -8
  40              		.cfi_offset 14, -4
  41 0002 83B0     		sub	sp, sp, #12
  42              	.LCFI1:
  43              		.cfi_def_cfa_offset 32
  44 0004 0446     		mov	r4, r0
  45 0006 1546     		mov	r5, r2
  46 0008 1E46     		mov	r6, r3
  47 000a 8DF80710 		strb	r1, [sp, #7]
 193:Core/MyLib/Src/sx126x.c ****     uint32_t Timeout = 2;
  48              		.loc 1 193 5 is_stmt 1 view .LVU2
  49              	.LVL1:
 194:Core/MyLib/Src/sx126x.c ****     HAL_GPIO_WritePin(GPIOA, GPIO_PIN_3, 0);
  50              		.loc 1 194 5 view .LVU3
  51 000e 0D4F     		ldr	r7, .L3
  52 0010 0022     		movs	r2, #0
  53              	.LVL2:
  54              		.loc 1 194 5 is_stmt 0 view .LVU4
  55 0012 0821     		movs	r1, #8
  56              	.LVL3:
  57              		.loc 1 194 5 view .LVU5
  58 0014 3846     		mov	r0, r7
  59              	.LVL4:
  60              		.loc 1 194 5 view .LVU6
  61 0016 FFF7FEFF 		bl	HAL_GPIO_WritePin
  62              	.LVL5:
 195:Core/MyLib/Src/sx126x.c ****     HAL_SPI_Transmit(hspi, &opCode, 1, Timeout);
  63              		.loc 1 195 5 is_stmt 1 view .LVU7
  64 001a 0223     		movs	r3, #2
  65 001c 0122     		movs	r2, #1
  66 001e 0DF10701 		add	r1, sp, #7
  67 0022 2046     		mov	r0, r4
  68 0024 FFF7FEFF 		bl	HAL_SPI_Transmit
  69              	.LVL6:
 196:Core/MyLib/Src/sx126x.c ****     HAL_SPI_Receive(hspi, buf, len, Timeout);
  70              		.loc 1 196 5 view .LVU8
  71 0028 0223     		movs	r3, #2
  72 002a 3246     		mov	r2, r6
  73 002c 2946     		mov	r1, r5
  74 002e 2046     		mov	r0, r4
  75 0030 FFF7FEFF 		bl	HAL_SPI_Receive
  76              	.LVL7:
 197:Core/MyLib/Src/sx126x.c ****     HAL_GPIO_WritePin(GPIOA, GPIO_PIN_3, 1);
  77              		.loc 1 197 5 view .LVU9
  78 0034 0122     		movs	r2, #1
  79 0036 0821     		movs	r1, #8
  80 0038 3846     		mov	r0, r7
  81 003a FFF7FEFF 		bl	HAL_GPIO_WritePin
  82              	.LVL8:
 198:Core/MyLib/Src/sx126x.c **** }
  83              		.loc 1 198 1 is_stmt 0 view .LVU10
  84 003e 03B0     		add	sp, sp, #12
  85              	.LCFI2:
  86              		.cfi_def_cfa_offset 20
  87              		@ sp needed
  88 0040 F0BD     		pop	{r4, r5, r6, r7, pc}
ARM GAS  C:\Users\vladk\AppData\Local\Temp\ccklnA5P.s 			page 6


  89              	.LVL9:
  90              	.L4:
  91              		.loc 1 198 1 view .LVU11
  92 0042 00BF     		.align	2
  93              	.L3:
  94 0044 00080140 		.word	1073809408
  95              		.cfi_endproc
  96              	.LFE88:
  98              		.section	.text.getPacketType,"ax",%progbits
  99              		.align	1
 100              		.global	getPacketType
 101              		.syntax unified
 102              		.thumb
 103              		.thumb_func
 104              		.fpu softvfp
 106              	getPacketType:
 107              	.LVL10:
 108              	.LFB69:
  52:Core/MyLib/Src/sx126x.c ****     uint8_t buf[2];
 109              		.loc 1 52 65 is_stmt 1 view -0
 110              		.cfi_startproc
 111              		@ args = 0, pretend = 0, frame = 8
 112              		@ frame_needed = 0, uses_anonymous_args = 0
  52:Core/MyLib/Src/sx126x.c ****     uint8_t buf[2];
 113              		.loc 1 52 65 is_stmt 0 view .LVU13
 114 0000 10B5     		push	{r4, lr}
 115              	.LCFI3:
 116              		.cfi_def_cfa_offset 8
 117              		.cfi_offset 4, -8
 118              		.cfi_offset 14, -4
 119 0002 82B0     		sub	sp, sp, #8
 120              	.LCFI4:
 121              		.cfi_def_cfa_offset 16
 122 0004 0C46     		mov	r4, r1
  53:Core/MyLib/Src/sx126x.c ****     getAnswer(hspi, OPCODE_SET_PACKET_TYPE, buf, 2);
 123              		.loc 1 53 5 is_stmt 1 view .LVU14
  54:Core/MyLib/Src/sx126x.c ****     *packetType = buf[1];
 124              		.loc 1 54 5 view .LVU15
 125 0006 0223     		movs	r3, #2
 126 0008 01AA     		add	r2, sp, #4
 127 000a 8A21     		movs	r1, #138
 128              	.LVL11:
  54:Core/MyLib/Src/sx126x.c ****     *packetType = buf[1];
 129              		.loc 1 54 5 is_stmt 0 view .LVU16
 130 000c FFF7FEFF 		bl	getAnswer
 131              	.LVL12:
  55:Core/MyLib/Src/sx126x.c **** }
 132              		.loc 1 55 5 is_stmt 1 view .LVU17
  55:Core/MyLib/Src/sx126x.c **** }
 133              		.loc 1 55 22 is_stmt 0 view .LVU18
 134 0010 9DF80530 		ldrb	r3, [sp, #5]	@ zero_extendqisi2
  55:Core/MyLib/Src/sx126x.c **** }
 135              		.loc 1 55 17 view .LVU19
 136 0014 2370     		strb	r3, [r4]
  56:Core/MyLib/Src/sx126x.c **** // Устанавливаеv модуль в режим LoRa или в FSK
 137              		.loc 1 56 1 view .LVU20
 138 0016 02B0     		add	sp, sp, #8
ARM GAS  C:\Users\vladk\AppData\Local\Temp\ccklnA5P.s 			page 7


 139              	.LCFI5:
 140              		.cfi_def_cfa_offset 8
 141              		@ sp needed
 142 0018 10BD     		pop	{r4, pc}
  56:Core/MyLib/Src/sx126x.c **** // Устанавливаеv модуль в режим LoRa или в FSK
 143              		.loc 1 56 1 view .LVU21
 144              		.cfi_endproc
 145              	.LFE69:
 147              		.section	.text.GetIrqStatus,"ax",%progbits
 148              		.align	1
 149              		.global	GetIrqStatus
 150              		.syntax unified
 151              		.thumb
 152              		.thumb_func
 153              		.fpu softvfp
 155              	GetIrqStatus:
 156              	.LVL13:
 157              	.LFB80:
 131:Core/MyLib/Src/sx126x.c ****     uint8_t buf[3] = {0};
 158              		.loc 1 131 62 is_stmt 1 view -0
 159              		.cfi_startproc
 160              		@ args = 0, pretend = 0, frame = 8
 161              		@ frame_needed = 0, uses_anonymous_args = 0
 131:Core/MyLib/Src/sx126x.c ****     uint8_t buf[3] = {0};
 162              		.loc 1 131 62 is_stmt 0 view .LVU23
 163 0000 30B5     		push	{r4, r5, lr}
 164              	.LCFI6:
 165              		.cfi_def_cfa_offset 12
 166              		.cfi_offset 4, -12
 167              		.cfi_offset 5, -8
 168              		.cfi_offset 14, -4
 169 0002 83B0     		sub	sp, sp, #12
 170              	.LCFI7:
 171              		.cfi_def_cfa_offset 24
 172 0004 0D46     		mov	r5, r1
 132:Core/MyLib/Src/sx126x.c ****     getAnswer(hspi, OPCODE_GET_IRQ_STATUS, buf, 3);
 173              		.loc 1 132 5 is_stmt 1 view .LVU24
 132:Core/MyLib/Src/sx126x.c ****     getAnswer(hspi, OPCODE_GET_IRQ_STATUS, buf, 3);
 174              		.loc 1 132 13 is_stmt 0 view .LVU25
 175 0006 134B     		ldr	r3, .L11
 176 0008 1B88     		ldrh	r3, [r3]
 177 000a ADF80430 		strh	r3, [sp, #4]	@ movhi
 178 000e 0024     		movs	r4, #0
 179 0010 8DF80640 		strb	r4, [sp, #6]
 133:Core/MyLib/Src/sx126x.c ****     for(uint8_t i = 0; i < 8; i++)
 180              		.loc 1 133 5 is_stmt 1 view .LVU26
 181 0014 0323     		movs	r3, #3
 182 0016 01AA     		add	r2, sp, #4
 183 0018 1221     		movs	r1, #18
 184              	.LVL14:
 133:Core/MyLib/Src/sx126x.c ****     for(uint8_t i = 0; i < 8; i++)
 185              		.loc 1 133 5 is_stmt 0 view .LVU27
 186 001a FFF7FEFF 		bl	getAnswer
 187              	.LVL15:
 134:Core/MyLib/Src/sx126x.c ****         *((uint8_t *)(&(modem->IrqStatus)) + i) = (buf[2] >> i) & 0x01;
 188              		.loc 1 134 5 is_stmt 1 view .LVU28
 189              	.LBB2:
ARM GAS  C:\Users\vladk\AppData\Local\Temp\ccklnA5P.s 			page 8


 134:Core/MyLib/Src/sx126x.c ****         *((uint8_t *)(&(modem->IrqStatus)) + i) = (buf[2] >> i) & 0x01;
 190              		.loc 1 134 9 view .LVU29
 134:Core/MyLib/Src/sx126x.c ****         *((uint8_t *)(&(modem->IrqStatus)) + i) = (buf[2] >> i) & 0x01;
 191              		.loc 1 134 17 is_stmt 0 view .LVU30
 192 001e 2346     		mov	r3, r4
 134:Core/MyLib/Src/sx126x.c ****         *((uint8_t *)(&(modem->IrqStatus)) + i) = (buf[2] >> i) & 0x01;
 193              		.loc 1 134 5 view .LVU31
 194 0020 09E0     		b	.L8
 195              	.LVL16:
 196              	.L9:
 135:Core/MyLib/Src/sx126x.c ****     *((uint8_t *)(&(modem->IrqStatus)) + 8) = (buf[1] >> 0) & 0x01;
 197              		.loc 1 135 9 is_stmt 1 discriminator 3 view .LVU32
 135:Core/MyLib/Src/sx126x.c ****     *((uint8_t *)(&(modem->IrqStatus)) + 8) = (buf[1] >> 0) & 0x01;
 198              		.loc 1 135 55 is_stmt 0 discriminator 3 view .LVU33
 199 0022 9DF80620 		ldrb	r2, [sp, #6]	@ zero_extendqisi2
 135:Core/MyLib/Src/sx126x.c ****     *((uint8_t *)(&(modem->IrqStatus)) + 8) = (buf[1] >> 0) & 0x01;
 200              		.loc 1 135 59 discriminator 3 view .LVU34
 201 0026 1A41     		asrs	r2, r2, r3
 135:Core/MyLib/Src/sx126x.c ****     *((uint8_t *)(&(modem->IrqStatus)) + 8) = (buf[1] >> 0) & 0x01;
 202              		.loc 1 135 11 discriminator 3 view .LVU35
 203 0028 05F11800 		add	r0, r5, #24
 135:Core/MyLib/Src/sx126x.c ****     *((uint8_t *)(&(modem->IrqStatus)) + 8) = (buf[1] >> 0) & 0x01;
 204              		.loc 1 135 65 discriminator 3 view .LVU36
 205 002c 02F00102 		and	r2, r2, #1
 135:Core/MyLib/Src/sx126x.c ****     *((uint8_t *)(&(modem->IrqStatus)) + 8) = (buf[1] >> 0) & 0x01;
 206              		.loc 1 135 49 discriminator 3 view .LVU37
 207 0030 C254     		strb	r2, [r0, r3]
 134:Core/MyLib/Src/sx126x.c ****         *((uint8_t *)(&(modem->IrqStatus)) + i) = (buf[2] >> i) & 0x01;
 208              		.loc 1 134 31 is_stmt 1 discriminator 3 view .LVU38
 134:Core/MyLib/Src/sx126x.c ****         *((uint8_t *)(&(modem->IrqStatus)) + i) = (buf[2] >> i) & 0x01;
 209              		.loc 1 134 32 is_stmt 0 discriminator 3 view .LVU39
 210 0032 0133     		adds	r3, r3, #1
 211              	.LVL17:
 134:Core/MyLib/Src/sx126x.c ****         *((uint8_t *)(&(modem->IrqStatus)) + i) = (buf[2] >> i) & 0x01;
 212              		.loc 1 134 32 discriminator 3 view .LVU40
 213 0034 DBB2     		uxtb	r3, r3
 214              	.LVL18:
 215              	.L8:
 134:Core/MyLib/Src/sx126x.c ****         *((uint8_t *)(&(modem->IrqStatus)) + i) = (buf[2] >> i) & 0x01;
 216              		.loc 1 134 24 is_stmt 1 discriminator 1 view .LVU41
 134:Core/MyLib/Src/sx126x.c ****         *((uint8_t *)(&(modem->IrqStatus)) + i) = (buf[2] >> i) & 0x01;
 217              		.loc 1 134 5 is_stmt 0 discriminator 1 view .LVU42
 218 0036 072B     		cmp	r3, #7
 219 0038 F3D9     		bls	.L9
 220              	.LBE2:
 136:Core/MyLib/Src/sx126x.c ****     *((uint8_t *)(&(modem->IrqStatus)) + 9) = (buf[1] >> 1) & 0x01;
 221              		.loc 1 136 5 is_stmt 1 view .LVU43
 136:Core/MyLib/Src/sx126x.c ****     *((uint8_t *)(&(modem->IrqStatus)) + 9) = (buf[1] >> 1) & 0x01;
 222              		.loc 1 136 51 is_stmt 0 view .LVU44
 223 003a 9DF80530 		ldrb	r3, [sp, #5]	@ zero_extendqisi2
 224              	.LVL19:
 136:Core/MyLib/Src/sx126x.c ****     *((uint8_t *)(&(modem->IrqStatus)) + 9) = (buf[1] >> 1) & 0x01;
 225              		.loc 1 136 61 view .LVU45
 226 003e 03F00102 		and	r2, r3, #1
 136:Core/MyLib/Src/sx126x.c ****     *((uint8_t *)(&(modem->IrqStatus)) + 9) = (buf[1] >> 1) & 0x01;
 227              		.loc 1 136 45 view .LVU46
 228 0042 85F82020 		strb	r2, [r5, #32]
ARM GAS  C:\Users\vladk\AppData\Local\Temp\ccklnA5P.s 			page 9


 137:Core/MyLib/Src/sx126x.c **** }
 229              		.loc 1 137 5 is_stmt 1 view .LVU47
 137:Core/MyLib/Src/sx126x.c **** }
 230              		.loc 1 137 61 is_stmt 0 view .LVU48
 231 0046 C3F34003 		ubfx	r3, r3, #1, #1
 137:Core/MyLib/Src/sx126x.c **** }
 232              		.loc 1 137 45 view .LVU49
 233 004a 85F82130 		strb	r3, [r5, #33]
 138:Core/MyLib/Src/sx126x.c **** // Запись в регистр
 234              		.loc 1 138 1 view .LVU50
 235 004e 03B0     		add	sp, sp, #12
 236              	.LCFI8:
 237              		.cfi_def_cfa_offset 12
 238              		@ sp needed
 239 0050 30BD     		pop	{r4, r5, pc}
 240              	.LVL20:
 241              	.L12:
 138:Core/MyLib/Src/sx126x.c **** // Запись в регистр
 242              		.loc 1 138 1 view .LVU51
 243 0052 00BF     		.align	2
 244              	.L11:
 245 0054 00000000 		.word	.LANCHOR0
 246              		.cfi_endproc
 247              	.LFE80:
 249              		.section	.text.GetDeviceErrors,"ax",%progbits
 250              		.align	1
 251              		.global	GetDeviceErrors
 252              		.syntax unified
 253              		.thumb
 254              		.thumb_func
 255              		.fpu softvfp
 257              	GetDeviceErrors:
 258              	.LVL21:
 259              	.LFB87:
 186:Core/MyLib/Src/sx126x.c ****     uint8_t buf[3] = {0};
 260              		.loc 1 186 50 is_stmt 1 view -0
 261              		.cfi_startproc
 262              		@ args = 0, pretend = 0, frame = 8
 263              		@ frame_needed = 0, uses_anonymous_args = 0
 186:Core/MyLib/Src/sx126x.c ****     uint8_t buf[3] = {0};
 264              		.loc 1 186 50 is_stmt 0 view .LVU53
 265 0000 00B5     		push	{lr}
 266              	.LCFI9:
 267              		.cfi_def_cfa_offset 4
 268              		.cfi_offset 14, -4
 269 0002 83B0     		sub	sp, sp, #12
 270              	.LCFI10:
 271              		.cfi_def_cfa_offset 16
 187:Core/MyLib/Src/sx126x.c ****     getAnswer(hspi, OPCODE_GET_DEVICE_ERRORS, buf, 3);
 272              		.loc 1 187 5 is_stmt 1 view .LVU54
 187:Core/MyLib/Src/sx126x.c ****     getAnswer(hspi, OPCODE_GET_DEVICE_ERRORS, buf, 3);
 273              		.loc 1 187 13 is_stmt 0 view .LVU55
 274 0004 0A4B     		ldr	r3, .L15
 275 0006 1B88     		ldrh	r3, [r3]
 276 0008 ADF80430 		strh	r3, [sp, #4]	@ movhi
 277 000c 0023     		movs	r3, #0
 278 000e 8DF80630 		strb	r3, [sp, #6]
ARM GAS  C:\Users\vladk\AppData\Local\Temp\ccklnA5P.s 			page 10


 188:Core/MyLib/Src/sx126x.c ****     return (uint16_t)((buf[1] << 8) | buf[2]);
 279              		.loc 1 188 5 is_stmt 1 view .LVU56
 280 0012 0323     		movs	r3, #3
 281 0014 01AA     		add	r2, sp, #4
 282 0016 1721     		movs	r1, #23
 283 0018 FFF7FEFF 		bl	getAnswer
 284              	.LVL22:
 189:Core/MyLib/Src/sx126x.c **** }
 285              		.loc 1 189 5 view .LVU57
 189:Core/MyLib/Src/sx126x.c **** }
 286              		.loc 1 189 27 is_stmt 0 view .LVU58
 287 001c 9DF80500 		ldrb	r0, [sp, #5]	@ zero_extendqisi2
 189:Core/MyLib/Src/sx126x.c **** }
 288              		.loc 1 189 42 view .LVU59
 289 0020 9DF80630 		ldrb	r3, [sp, #6]	@ zero_extendqisi2
 190:Core/MyLib/Src/sx126x.c **** // Получить ответ от устройства
 290              		.loc 1 190 1 view .LVU60
 291 0024 43EA0020 		orr	r0, r3, r0, lsl #8
 292 0028 03B0     		add	sp, sp, #12
 293              	.LCFI11:
 294              		.cfi_def_cfa_offset 4
 295              		@ sp needed
 296 002a 5DF804FB 		ldr	pc, [sp], #4
 297              	.L16:
 298 002e 00BF     		.align	2
 299              	.L15:
 300 0030 00000000 		.word	.LANCHOR0
 301              		.cfi_endproc
 302              	.LFE87:
 304              		.section	.text.sendOpcode,"ax",%progbits
 305              		.align	1
 306              		.global	sendOpcode
 307              		.syntax unified
 308              		.thumb
 309              		.thumb_func
 310              		.fpu softvfp
 312              	sendOpcode:
 313              	.LVL23:
 314              	.LFB90:
 199:Core/MyLib/Src/sx126x.c **** 
 200:Core/MyLib/Src/sx126x.c **** void SetDioIrqParams(SPI_HandleTypeDef* hspi, uint16_t irq_mask, uint16_t dio1_mask, uint16_t dio2_
 201:Core/MyLib/Src/sx126x.c **** 
 202:Core/MyLib/Src/sx126x.c ****     uint8_t data[8] = {irq_mask >> 8, irq_mask & 0xFF, dio1_mask >> 8, dio1_mask & 0xFF, dio2_mask 
 203:Core/MyLib/Src/sx126x.c ****     sendOpcode(hspi, OPCODE_SET_DIO_IRQ_PARAMS, data, 8);
 204:Core/MyLib/Src/sx126x.c **** }
 205:Core/MyLib/Src/sx126x.c **** // Передача опкода и данных
 206:Core/MyLib/Src/sx126x.c **** void sendOpcode(SPI_HandleTypeDef* hspi, uint8_t opCode, uint8_t* pData, uint16_t param_len){
 315              		.loc 1 206 93 is_stmt 1 view -0
 316              		.cfi_startproc
 317              		@ args = 0, pretend = 0, frame = 8
 318              		@ frame_needed = 0, uses_anonymous_args = 0
 319              		.loc 1 206 93 is_stmt 0 view .LVU62
 320 0000 F0B5     		push	{r4, r5, r6, r7, lr}
 321              	.LCFI12:
 322              		.cfi_def_cfa_offset 20
 323              		.cfi_offset 4, -20
 324              		.cfi_offset 5, -16
ARM GAS  C:\Users\vladk\AppData\Local\Temp\ccklnA5P.s 			page 11


 325              		.cfi_offset 6, -12
 326              		.cfi_offset 7, -8
 327              		.cfi_offset 14, -4
 328 0002 83B0     		sub	sp, sp, #12
 329              	.LCFI13:
 330              		.cfi_def_cfa_offset 32
 331 0004 0446     		mov	r4, r0
 332 0006 1546     		mov	r5, r2
 333 0008 1E46     		mov	r6, r3
 334 000a 8DF80710 		strb	r1, [sp, #7]
 207:Core/MyLib/Src/sx126x.c ****     uint32_t Timeout = 2;
 335              		.loc 1 207 5 is_stmt 1 view .LVU63
 336              	.LVL24:
 208:Core/MyLib/Src/sx126x.c ****     HAL_GPIO_WritePin(GPIOA, GPIO_PIN_3, 0);
 337              		.loc 1 208 5 view .LVU64
 338 000e 0D4F     		ldr	r7, .L19
 339 0010 0022     		movs	r2, #0
 340              	.LVL25:
 341              		.loc 1 208 5 is_stmt 0 view .LVU65
 342 0012 0821     		movs	r1, #8
 343              	.LVL26:
 344              		.loc 1 208 5 view .LVU66
 345 0014 3846     		mov	r0, r7
 346              	.LVL27:
 347              		.loc 1 208 5 view .LVU67
 348 0016 FFF7FEFF 		bl	HAL_GPIO_WritePin
 349              	.LVL28:
 209:Core/MyLib/Src/sx126x.c ****     HAL_SPI_Transmit(hspi, &opCode, 1, Timeout);
 350              		.loc 1 209 5 is_stmt 1 view .LVU68
 351 001a 0223     		movs	r3, #2
 352 001c 0122     		movs	r2, #1
 353 001e 0DF10701 		add	r1, sp, #7
 354 0022 2046     		mov	r0, r4
 355 0024 FFF7FEFF 		bl	HAL_SPI_Transmit
 356              	.LVL29:
 210:Core/MyLib/Src/sx126x.c ****     HAL_SPI_Transmit(hspi, pData, param_len, Timeout);
 357              		.loc 1 210 5 view .LVU69
 358 0028 0223     		movs	r3, #2
 359 002a 3246     		mov	r2, r6
 360 002c 2946     		mov	r1, r5
 361 002e 2046     		mov	r0, r4
 362 0030 FFF7FEFF 		bl	HAL_SPI_Transmit
 363              	.LVL30:
 211:Core/MyLib/Src/sx126x.c ****     HAL_GPIO_WritePin(GPIOA, GPIO_PIN_3, 1);
 364              		.loc 1 211 5 view .LVU70
 365 0034 0122     		movs	r2, #1
 366 0036 0821     		movs	r1, #8
 367 0038 3846     		mov	r0, r7
 368 003a FFF7FEFF 		bl	HAL_GPIO_WritePin
 369              	.LVL31:
 212:Core/MyLib/Src/sx126x.c **** }
 370              		.loc 1 212 1 is_stmt 0 view .LVU71
 371 003e 03B0     		add	sp, sp, #12
 372              	.LCFI14:
 373              		.cfi_def_cfa_offset 20
 374              		@ sp needed
 375 0040 F0BD     		pop	{r4, r5, r6, r7, pc}
ARM GAS  C:\Users\vladk\AppData\Local\Temp\ccklnA5P.s 			page 12


 376              	.LVL32:
 377              	.L20:
 378              		.loc 1 212 1 view .LVU72
 379 0042 00BF     		.align	2
 380              	.L19:
 381 0044 00080140 		.word	1073809408
 382              		.cfi_endproc
 383              	.LFE90:
 385              		.section	.text.SetStandby,"ax",%progbits
 386              		.align	1
 387              		.global	SetStandby
 388              		.syntax unified
 389              		.thumb
 390              		.thumb_func
 391              		.fpu softvfp
 393              	SetStandby:
 394              	.LVL33:
 395              	.LFB67:
  40:Core/MyLib/Src/sx126x.c ****     sendOpcode(hspi, OPCODE_SET_STANDY, &modem->StdbyConfig, 1);
 396              		.loc 1 40 60 is_stmt 1 view -0
 397              		.cfi_startproc
 398              		@ args = 0, pretend = 0, frame = 0
 399              		@ frame_needed = 0, uses_anonymous_args = 0
  40:Core/MyLib/Src/sx126x.c ****     sendOpcode(hspi, OPCODE_SET_STANDY, &modem->StdbyConfig, 1);
 400              		.loc 1 40 60 is_stmt 0 view .LVU74
 401 0000 08B5     		push	{r3, lr}
 402              	.LCFI15:
 403              		.cfi_def_cfa_offset 8
 404              		.cfi_offset 3, -8
 405              		.cfi_offset 14, -4
 406 0002 0A46     		mov	r2, r1
  41:Core/MyLib/Src/sx126x.c **** }
 407              		.loc 1 41 5 is_stmt 1 view .LVU75
 408 0004 0123     		movs	r3, #1
 409 0006 8021     		movs	r1, #128
 410              	.LVL34:
  41:Core/MyLib/Src/sx126x.c **** }
 411              		.loc 1 41 5 is_stmt 0 view .LVU76
 412 0008 FFF7FEFF 		bl	sendOpcode
 413              	.LVL35:
  42:Core/MyLib/Src/sx126x.c **** void fixLoRaBw500(SPI_HandleTypeDef* hspi, uint8_t bw){
 414              		.loc 1 42 1 view .LVU77
 415 000c 08BD     		pop	{r3, pc}
 416              		.cfi_endproc
 417              	.LFE67:
 419              		.section	.text.SetPacketType,"ax",%progbits
 420              		.align	1
 421              		.global	SetPacketType
 422              		.syntax unified
 423              		.thumb
 424              		.thumb_func
 425              		.fpu softvfp
 427              	SetPacketType:
 428              	.LVL36:
 429              	.LFB70:
  58:Core/MyLib/Src/sx126x.c ****     sendOpcode(hspi, OPCODE_SET_PACKET_TYPE, &modem->PacketType, 1);
 430              		.loc 1 58 63 is_stmt 1 view -0
ARM GAS  C:\Users\vladk\AppData\Local\Temp\ccklnA5P.s 			page 13


 431              		.cfi_startproc
 432              		@ args = 0, pretend = 0, frame = 0
 433              		@ frame_needed = 0, uses_anonymous_args = 0
  58:Core/MyLib/Src/sx126x.c ****     sendOpcode(hspi, OPCODE_SET_PACKET_TYPE, &modem->PacketType, 1);
 434              		.loc 1 58 63 is_stmt 0 view .LVU79
 435 0000 08B5     		push	{r3, lr}
 436              	.LCFI16:
 437              		.cfi_def_cfa_offset 8
 438              		.cfi_offset 3, -8
 439              		.cfi_offset 14, -4
  59:Core/MyLib/Src/sx126x.c **** }
 440              		.loc 1 59 5 is_stmt 1 view .LVU80
 441 0002 0123     		movs	r3, #1
 442 0004 CA18     		adds	r2, r1, r3
 443 0006 8A21     		movs	r1, #138
 444              	.LVL37:
  59:Core/MyLib/Src/sx126x.c **** }
 445              		.loc 1 59 5 is_stmt 0 view .LVU81
 446 0008 FFF7FEFF 		bl	sendOpcode
 447              	.LVL38:
  60:Core/MyLib/Src/sx126x.c **** // Частота передатчика
 448              		.loc 1 60 1 view .LVU82
 449 000c 08BD     		pop	{r3, pc}
 450              		.cfi_endproc
 451              	.LFE70:
 453              		.section	.text.setBufferBaseAddress,"ax",%progbits
 454              		.align	1
 455              		.global	setBufferBaseAddress
 456              		.syntax unified
 457              		.thumb
 458              		.thumb_func
 459              		.fpu softvfp
 461              	setBufferBaseAddress:
 462              	.LVL39:
 463              	.LFB72:
  81:Core/MyLib/Src/sx126x.c ****     uint8_t buf[2];
 464              		.loc 1 81 98 is_stmt 1 view -0
 465              		.cfi_startproc
 466              		@ args = 0, pretend = 0, frame = 8
 467              		@ frame_needed = 0, uses_anonymous_args = 0
  81:Core/MyLib/Src/sx126x.c ****     uint8_t buf[2];
 468              		.loc 1 81 98 is_stmt 0 view .LVU84
 469 0000 00B5     		push	{lr}
 470              	.LCFI17:
 471              		.cfi_def_cfa_offset 4
 472              		.cfi_offset 14, -4
 473 0002 83B0     		sub	sp, sp, #12
 474              	.LCFI18:
 475              		.cfi_def_cfa_offset 16
  82:Core/MyLib/Src/sx126x.c ****     buf[0] = txBaseAddress;
 476              		.loc 1 82 5 is_stmt 1 view .LVU85
  83:Core/MyLib/Src/sx126x.c ****     buf[1] = rxBaseAddress;
 477              		.loc 1 83 5 view .LVU86
  83:Core/MyLib/Src/sx126x.c ****     buf[1] = rxBaseAddress;
 478              		.loc 1 83 12 is_stmt 0 view .LVU87
 479 0004 8DF80410 		strb	r1, [sp, #4]
  84:Core/MyLib/Src/sx126x.c ****     sendOpcode(hspi, OPCODE_SET_BUFER_BASE_ADDRESS, buf, 2);
ARM GAS  C:\Users\vladk\AppData\Local\Temp\ccklnA5P.s 			page 14


 480              		.loc 1 84 5 is_stmt 1 view .LVU88
  84:Core/MyLib/Src/sx126x.c ****     sendOpcode(hspi, OPCODE_SET_BUFER_BASE_ADDRESS, buf, 2);
 481              		.loc 1 84 12 is_stmt 0 view .LVU89
 482 0008 8DF80520 		strb	r2, [sp, #5]
  85:Core/MyLib/Src/sx126x.c ****  }
 483              		.loc 1 85 5 is_stmt 1 view .LVU90
 484 000c 0223     		movs	r3, #2
 485 000e 01AA     		add	r2, sp, #4
 486              	.LVL40:
  85:Core/MyLib/Src/sx126x.c ****  }
 487              		.loc 1 85 5 is_stmt 0 view .LVU91
 488 0010 8F21     		movs	r1, #143
 489              	.LVL41:
  85:Core/MyLib/Src/sx126x.c ****  }
 490              		.loc 1 85 5 view .LVU92
 491 0012 FFF7FEFF 		bl	sendOpcode
 492              	.LVL42:
  86:Core/MyLib/Src/sx126x.c **** // Усилитель мощности
 493              		.loc 1 86 2 view .LVU93
 494 0016 03B0     		add	sp, sp, #12
 495              	.LCFI19:
 496              		.cfi_def_cfa_offset 4
 497              		@ sp needed
 498 0018 5DF804FB 		ldr	pc, [sp], #4
 499              		.cfi_endproc
 500              	.LFE72:
 502              		.section	.text.SetPaConfig,"ax",%progbits
 503              		.align	1
 504              		.global	SetPaConfig
 505              		.syntax unified
 506              		.thumb
 507              		.thumb_func
 508              		.fpu softvfp
 510              	SetPaConfig:
 511              	.LVL43:
 512              	.LFB73:
  88:Core/MyLib/Src/sx126x.c ****     uint8_t buf[4];
 513              		.loc 1 88 112 is_stmt 1 view -0
 514              		.cfi_startproc
 515              		@ args = 4, pretend = 0, frame = 8
 516              		@ frame_needed = 0, uses_anonymous_args = 0
  88:Core/MyLib/Src/sx126x.c ****     uint8_t buf[4];
 517              		.loc 1 88 112 is_stmt 0 view .LVU95
 518 0000 00B5     		push	{lr}
 519              	.LCFI20:
 520              		.cfi_def_cfa_offset 4
 521              		.cfi_offset 14, -4
 522 0002 83B0     		sub	sp, sp, #12
 523              	.LCFI21:
 524              		.cfi_def_cfa_offset 16
  89:Core/MyLib/Src/sx126x.c ****     buf[0] = paDutyCycle;
 525              		.loc 1 89 5 is_stmt 1 view .LVU96
  90:Core/MyLib/Src/sx126x.c ****     buf[1] = hpMax;
 526              		.loc 1 90 5 view .LVU97
  90:Core/MyLib/Src/sx126x.c ****     buf[1] = hpMax;
 527              		.loc 1 90 12 is_stmt 0 view .LVU98
 528 0004 8DF80410 		strb	r1, [sp, #4]
ARM GAS  C:\Users\vladk\AppData\Local\Temp\ccklnA5P.s 			page 15


  91:Core/MyLib/Src/sx126x.c ****     buf[2] = deviceSel;
 529              		.loc 1 91 5 is_stmt 1 view .LVU99
  91:Core/MyLib/Src/sx126x.c ****     buf[2] = deviceSel;
 530              		.loc 1 91 12 is_stmt 0 view .LVU100
 531 0008 8DF80520 		strb	r2, [sp, #5]
  92:Core/MyLib/Src/sx126x.c ****     buf[3] = paLut;
 532              		.loc 1 92 5 is_stmt 1 view .LVU101
  92:Core/MyLib/Src/sx126x.c ****     buf[3] = paLut;
 533              		.loc 1 92 12 is_stmt 0 view .LVU102
 534 000c 8DF80630 		strb	r3, [sp, #6]
  93:Core/MyLib/Src/sx126x.c ****     sendOpcode(hspi, OPCODE_CALIBRATE, buf, 4);
 535              		.loc 1 93 5 is_stmt 1 view .LVU103
  93:Core/MyLib/Src/sx126x.c ****     sendOpcode(hspi, OPCODE_CALIBRATE, buf, 4);
 536              		.loc 1 93 12 is_stmt 0 view .LVU104
 537 0010 9DF81030 		ldrb	r3, [sp, #16]	@ zero_extendqisi2
 538              	.LVL44:
  93:Core/MyLib/Src/sx126x.c ****     sendOpcode(hspi, OPCODE_CALIBRATE, buf, 4);
 539              		.loc 1 93 12 view .LVU105
 540 0014 8DF80730 		strb	r3, [sp, #7]
  94:Core/MyLib/Src/sx126x.c **** }
 541              		.loc 1 94 5 is_stmt 1 view .LVU106
 542 0018 0423     		movs	r3, #4
 543 001a 0DEB0302 		add	r2, sp, r3
 544              	.LVL45:
  94:Core/MyLib/Src/sx126x.c **** }
 545              		.loc 1 94 5 is_stmt 0 view .LVU107
 546 001e 8921     		movs	r1, #137
 547              	.LVL46:
  94:Core/MyLib/Src/sx126x.c **** }
 548              		.loc 1 94 5 view .LVU108
 549 0020 FFF7FEFF 		bl	sendOpcode
 550              	.LVL47:
  95:Core/MyLib/Src/sx126x.c **** // Каллибровка
 551              		.loc 1 95 1 view .LVU109
 552 0024 03B0     		add	sp, sp, #12
 553              	.LCFI22:
 554              		.cfi_def_cfa_offset 4
 555              		@ sp needed
 556 0026 5DF804FB 		ldr	pc, [sp], #4
  95:Core/MyLib/Src/sx126x.c **** // Каллибровка
 557              		.loc 1 95 1 view .LVU110
 558              		.cfi_endproc
 559              	.LFE73:
 561              		.section	.text.Calibrate,"ax",%progbits
 562              		.align	1
 563              		.global	Calibrate
 564              		.syntax unified
 565              		.thumb
 566              		.thumb_func
 567              		.fpu softvfp
 569              	Calibrate:
 570              	.LVL48:
 571              	.LFB74:
  97:Core/MyLib/Src/sx126x.c ****     SetStandby(hspi, modem);
 572              		.loc 1 97 79 is_stmt 1 view -0
 573              		.cfi_startproc
 574              		@ args = 0, pretend = 0, frame = 8
ARM GAS  C:\Users\vladk\AppData\Local\Temp\ccklnA5P.s 			page 16


 575              		@ frame_needed = 0, uses_anonymous_args = 0
  97:Core/MyLib/Src/sx126x.c ****     SetStandby(hspi, modem);
 576              		.loc 1 97 79 is_stmt 0 view .LVU112
 577 0000 10B5     		push	{r4, lr}
 578              	.LCFI23:
 579              		.cfi_def_cfa_offset 8
 580              		.cfi_offset 4, -8
 581              		.cfi_offset 14, -4
 582 0002 82B0     		sub	sp, sp, #8
 583              	.LCFI24:
 584              		.cfi_def_cfa_offset 16
 585 0004 0446     		mov	r4, r0
 586 0006 8DF80720 		strb	r2, [sp, #7]
  98:Core/MyLib/Src/sx126x.c ****     sendOpcode(hspi, OPCODE_CALIBRATE, &calibParam, 1);
 587              		.loc 1 98 5 is_stmt 1 view .LVU113
 588 000a FFF7FEFF 		bl	SetStandby
 589              	.LVL49:
  99:Core/MyLib/Src/sx126x.c **** }
 590              		.loc 1 99 5 view .LVU114
 591 000e 0123     		movs	r3, #1
 592 0010 0DF10702 		add	r2, sp, #7
 593 0014 8921     		movs	r1, #137
 594 0016 2046     		mov	r0, r4
 595 0018 FFF7FEFF 		bl	sendOpcode
 596              	.LVL50:
 100:Core/MyLib/Src/sx126x.c **** // Каллибровка изображения
 597              		.loc 1 100 1 is_stmt 0 view .LVU115
 598 001c 02B0     		add	sp, sp, #8
 599              	.LCFI25:
 600              		.cfi_def_cfa_offset 8
 601              		@ sp needed
 602 001e 10BD     		pop	{r4, pc}
 100:Core/MyLib/Src/sx126x.c **** // Каллибровка изображения
 603              		.loc 1 100 1 view .LVU116
 604              		.cfi_endproc
 605              	.LFE74:
 607              		.section	.text.CalibrateImage,"ax",%progbits
 608              		.align	1
 609              		.global	CalibrateImage
 610              		.syntax unified
 611              		.thumb
 612              		.thumb_func
 613              		.fpu softvfp
 615              	CalibrateImage:
 616              	.LVL51:
 617              	.LFB75:
 102:Core/MyLib/Src/sx126x.c ****     uint8_t buf[2];
 618              		.loc 1 102 75 is_stmt 1 view -0
 619              		.cfi_startproc
 620              		@ args = 0, pretend = 0, frame = 8
 621              		@ frame_needed = 0, uses_anonymous_args = 0
 102:Core/MyLib/Src/sx126x.c ****     uint8_t buf[2];
 622              		.loc 1 102 75 is_stmt 0 view .LVU118
 623 0000 00B5     		push	{lr}
 624              	.LCFI26:
 625              		.cfi_def_cfa_offset 4
 626              		.cfi_offset 14, -4
ARM GAS  C:\Users\vladk\AppData\Local\Temp\ccklnA5P.s 			page 17


 627 0002 83B0     		sub	sp, sp, #12
 628              	.LCFI27:
 629              		.cfi_def_cfa_offset 16
 103:Core/MyLib/Src/sx126x.c ****     buf[0] = freq1;
 630              		.loc 1 103 5 is_stmt 1 view .LVU119
 104:Core/MyLib/Src/sx126x.c ****     buf[1] = freq2;
 631              		.loc 1 104 5 view .LVU120
 104:Core/MyLib/Src/sx126x.c ****     buf[1] = freq2;
 632              		.loc 1 104 12 is_stmt 0 view .LVU121
 633 0004 8DF80410 		strb	r1, [sp, #4]
 105:Core/MyLib/Src/sx126x.c ****     sendOpcode(hspi, OPCODE_CALIBRATE_IMAGE, buf, 2);
 634              		.loc 1 105 5 is_stmt 1 view .LVU122
 105:Core/MyLib/Src/sx126x.c ****     sendOpcode(hspi, OPCODE_CALIBRATE_IMAGE, buf, 2);
 635              		.loc 1 105 12 is_stmt 0 view .LVU123
 636 0008 8DF80520 		strb	r2, [sp, #5]
 106:Core/MyLib/Src/sx126x.c **** }
 637              		.loc 1 106 5 is_stmt 1 view .LVU124
 638 000c 0223     		movs	r3, #2
 639 000e 01AA     		add	r2, sp, #4
 640              	.LVL52:
 106:Core/MyLib/Src/sx126x.c **** }
 641              		.loc 1 106 5 is_stmt 0 view .LVU125
 642 0010 9821     		movs	r1, #152
 643              	.LVL53:
 106:Core/MyLib/Src/sx126x.c **** }
 644              		.loc 1 106 5 view .LVU126
 645 0012 FFF7FEFF 		bl	sendOpcode
 646              	.LVL54:
 107:Core/MyLib/Src/sx126x.c **** 
 647              		.loc 1 107 1 view .LVU127
 648 0016 03B0     		add	sp, sp, #12
 649              	.LCFI28:
 650              		.cfi_def_cfa_offset 4
 651              		@ sp needed
 652 0018 5DF804FB 		ldr	pc, [sp], #4
 653              		.cfi_endproc
 654              	.LFE75:
 656              		.section	.text.SetRfFrequency,"ax",%progbits
 657              		.align	1
 658              		.global	SetRfFrequency
 659              		.syntax unified
 660              		.thumb
 661              		.thumb_func
 662              		.fpu softvfp
 664              	SetRfFrequency:
 665              	.LVL55:
 666              	.LFB71:
  62:Core/MyLib/Src/sx126x.c ****     uint8_t calFreq[2];
 667              		.loc 1 62 64 is_stmt 1 view -0
 668              		.cfi_startproc
 669              		@ args = 0, pretend = 0, frame = 8
 670              		@ frame_needed = 0, uses_anonymous_args = 0
  62:Core/MyLib/Src/sx126x.c ****     uint8_t calFreq[2];
 671              		.loc 1 62 64 is_stmt 0 view .LVU129
 672 0000 10B5     		push	{r4, lr}
 673              	.LCFI29:
 674              		.cfi_def_cfa_offset 8
ARM GAS  C:\Users\vladk\AppData\Local\Temp\ccklnA5P.s 			page 18


 675              		.cfi_offset 4, -8
 676              		.cfi_offset 14, -4
 677 0002 82B0     		sub	sp, sp, #8
 678              	.LCFI30:
 679              		.cfi_def_cfa_offset 16
 680 0004 0446     		mov	r4, r0
  63:Core/MyLib/Src/sx126x.c ****     if (modem->RfFreq < 828000000){     // 779 - 787 Mhz
 681              		.loc 1 63 5 is_stmt 1 view .LVU130
  64:Core/MyLib/Src/sx126x.c ****         calFreq[0] = SX126X_CAL_IMG_779;
 682              		.loc 1 64 5 view .LVU131
  64:Core/MyLib/Src/sx126x.c ****         calFreq[0] = SX126X_CAL_IMG_779;
 683              		.loc 1 64 14 is_stmt 0 view .LVU132
 684 0006 4B68     		ldr	r3, [r1, #4]
  64:Core/MyLib/Src/sx126x.c ****         calFreq[0] = SX126X_CAL_IMG_779;
 685              		.loc 1 64 8 view .LVU133
 686 0008 1B4A     		ldr	r2, .L38
 687 000a 9342     		cmp	r3, r2
 688 000c 1FD8     		bhi	.L34
  65:Core/MyLib/Src/sx126x.c ****         calFreq[1] = SX126X_CAL_IMG_787;
 689              		.loc 1 65 9 is_stmt 1 view .LVU134
  65:Core/MyLib/Src/sx126x.c ****         calFreq[1] = SX126X_CAL_IMG_787;
 690              		.loc 1 65 20 is_stmt 0 view .LVU135
 691 000e C122     		movs	r2, #193
 692 0010 8DF80420 		strb	r2, [sp, #4]
  66:Core/MyLib/Src/sx126x.c ****     }
 693              		.loc 1 66 9 is_stmt 1 view .LVU136
  66:Core/MyLib/Src/sx126x.c ****     }
 694              		.loc 1 66 20 is_stmt 0 view .LVU137
 695 0014 C522     		movs	r2, #197
 696 0016 8DF80520 		strb	r2, [sp, #5]
 697              	.L35:
  76:Core/MyLib/Src/sx126x.c ****     uint8_t data[4] = {(rfFreq >> 24)  & 0xFF, (rfFreq >> 16) & 0xFF, (rfFreq >> 8) & 0xFF, rfFreq 
 698              		.loc 1 76 5 is_stmt 1 view .LVU138
 699              	.LVL56:
  77:Core/MyLib/Src/sx126x.c ****     CalibrateImage(hspi, calFreq[0], calFreq[1]);
 700              		.loc 1 77 5 view .LVU139
  77:Core/MyLib/Src/sx126x.c ****     CalibrateImage(hspi, calFreq[0], calFreq[1]);
 701              		.loc 1 77 32 is_stmt 0 view .LVU140
 702 001a 1A0E     		lsrs	r2, r3, #24
  77:Core/MyLib/Src/sx126x.c ****     CalibrateImage(hspi, calFreq[0], calFreq[1]);
 703              		.loc 1 77 13 view .LVU141
 704 001c 8DF80020 		strb	r2, [sp]
  77:Core/MyLib/Src/sx126x.c ****     CalibrateImage(hspi, calFreq[0], calFreq[1]);
 705              		.loc 1 77 56 view .LVU142
 706 0020 1A0C     		lsrs	r2, r3, #16
  77:Core/MyLib/Src/sx126x.c ****     CalibrateImage(hspi, calFreq[0], calFreq[1]);
 707              		.loc 1 77 13 view .LVU143
 708 0022 8DF80120 		strb	r2, [sp, #1]
  77:Core/MyLib/Src/sx126x.c ****     CalibrateImage(hspi, calFreq[0], calFreq[1]);
 709              		.loc 1 77 79 view .LVU144
 710 0026 1A0A     		lsrs	r2, r3, #8
  77:Core/MyLib/Src/sx126x.c ****     CalibrateImage(hspi, calFreq[0], calFreq[1]);
 711              		.loc 1 77 13 view .LVU145
 712 0028 8DF80220 		strb	r2, [sp, #2]
 713 002c 8DF80330 		strb	r3, [sp, #3]
  78:Core/MyLib/Src/sx126x.c ****     sendOpcode(hspi, OPCODE_SET_RF_FREQUENCY, data, 4);
 714              		.loc 1 78 5 is_stmt 1 view .LVU146
ARM GAS  C:\Users\vladk\AppData\Local\Temp\ccklnA5P.s 			page 19


 715 0030 9DF80520 		ldrb	r2, [sp, #5]	@ zero_extendqisi2
 716 0034 9DF80410 		ldrb	r1, [sp, #4]	@ zero_extendqisi2
 717              	.LVL57:
  78:Core/MyLib/Src/sx126x.c ****     sendOpcode(hspi, OPCODE_SET_RF_FREQUENCY, data, 4);
 718              		.loc 1 78 5 is_stmt 0 view .LVU147
 719 0038 2046     		mov	r0, r4
 720              	.LVL58:
  78:Core/MyLib/Src/sx126x.c ****     sendOpcode(hspi, OPCODE_SET_RF_FREQUENCY, data, 4);
 721              		.loc 1 78 5 view .LVU148
 722 003a FFF7FEFF 		bl	CalibrateImage
 723              	.LVL59:
  79:Core/MyLib/Src/sx126x.c **** }
 724              		.loc 1 79 5 is_stmt 1 view .LVU149
 725 003e 0423     		movs	r3, #4
 726 0040 6A46     		mov	r2, sp
 727 0042 8621     		movs	r1, #134
 728 0044 2046     		mov	r0, r4
 729 0046 FFF7FEFF 		bl	sendOpcode
 730              	.LVL60:
  80:Core/MyLib/Src/sx126x.c ****  void setBufferBaseAddress(SPI_HandleTypeDef* hspi, uint8_t txBaseAddress, uint8_t rxBaseAddress){
 731              		.loc 1 80 1 is_stmt 0 view .LVU150
 732 004a 02B0     		add	sp, sp, #8
 733              	.LCFI31:
 734              		.cfi_remember_state
 735              		.cfi_def_cfa_offset 8
 736              		@ sp needed
 737 004c 10BD     		pop	{r4, pc}
 738              	.LVL61:
 739              	.L34:
 740              	.LCFI32:
 741              		.cfi_restore_state
  68:Core/MyLib/Src/sx126x.c ****         calFreq[0] = SX126X_CAL_IMG_863;
 742              		.loc 1 68 10 is_stmt 1 view .LVU151
  68:Core/MyLib/Src/sx126x.c ****         calFreq[0] = SX126X_CAL_IMG_863;
 743              		.loc 1 68 13 is_stmt 0 view .LVU152
 744 004e 0B4A     		ldr	r2, .L38+4
 745 0050 9342     		cmp	r3, r2
 746 0052 06D8     		bhi	.L36
  69:Core/MyLib/Src/sx126x.c ****         calFreq[1] = SX126X_CAL_IMG_870;
 747              		.loc 1 69 9 is_stmt 1 view .LVU153
  69:Core/MyLib/Src/sx126x.c ****         calFreq[1] = SX126X_CAL_IMG_870;
 748              		.loc 1 69 20 is_stmt 0 view .LVU154
 749 0054 D722     		movs	r2, #215
 750 0056 8DF80420 		strb	r2, [sp, #4]
  70:Core/MyLib/Src/sx126x.c ****     }
 751              		.loc 1 70 9 is_stmt 1 view .LVU155
  70:Core/MyLib/Src/sx126x.c ****     }
 752              		.loc 1 70 20 is_stmt 0 view .LVU156
 753 005a DB22     		movs	r2, #219
 754 005c 8DF80520 		strb	r2, [sp, #5]
 755 0060 DBE7     		b	.L35
 756              	.L36:
  72:Core/MyLib/Src/sx126x.c ****         calFreq[0] = SX126X_CAL_IMG_902;
 757              		.loc 1 72 10 is_stmt 1 view .LVU157
  72:Core/MyLib/Src/sx126x.c ****         calFreq[0] = SX126X_CAL_IMG_902;
 758              		.loc 1 72 13 is_stmt 0 view .LVU158
 759 0062 074A     		ldr	r2, .L38+8
ARM GAS  C:\Users\vladk\AppData\Local\Temp\ccklnA5P.s 			page 20


 760 0064 9342     		cmp	r3, r2
 761 0066 D8D8     		bhi	.L35
  73:Core/MyLib/Src/sx126x.c ****         calFreq[1] = SX126X_CAL_IMG_928;
 762              		.loc 1 73 9 is_stmt 1 view .LVU159
  73:Core/MyLib/Src/sx126x.c ****         calFreq[1] = SX126X_CAL_IMG_928;
 763              		.loc 1 73 20 is_stmt 0 view .LVU160
 764 0068 E122     		movs	r2, #225
 765 006a 8DF80420 		strb	r2, [sp, #4]
  74:Core/MyLib/Src/sx126x.c ****     }
 766              		.loc 1 74 9 is_stmt 1 view .LVU161
  74:Core/MyLib/Src/sx126x.c ****     }
 767              		.loc 1 74 20 is_stmt 0 view .LVU162
 768 006e E922     		movs	r2, #233
 769 0070 8DF80520 		strb	r2, [sp, #5]
 770 0074 D1E7     		b	.L35
 771              	.L39:
 772 0076 00BF     		.align	2
 773              	.L38:
 774 0078 FF465A31 		.word	827999999
 775 007c 3FF54534 		.word	876999999
 776 0080 FFAA9041 		.word	1099999999
 777              		.cfi_endproc
 778              	.LFE71:
 780              		.section	.text.SetTxParams,"ax",%progbits
 781              		.align	1
 782              		.global	SetTxParams
 783              		.syntax unified
 784              		.thumb
 785              		.thumb_func
 786              		.fpu softvfp
 788              	SetTxParams:
 789              	.LVL62:
 790              	.LFB76:
 110:Core/MyLib/Src/sx126x.c ****     uint8_t TxParams[2] = {modem->Power, modem->RampTime};
 791              		.loc 1 110 61 is_stmt 1 view -0
 792              		.cfi_startproc
 793              		@ args = 0, pretend = 0, frame = 8
 794              		@ frame_needed = 0, uses_anonymous_args = 0
 110:Core/MyLib/Src/sx126x.c ****     uint8_t TxParams[2] = {modem->Power, modem->RampTime};
 795              		.loc 1 110 61 is_stmt 0 view .LVU164
 796 0000 00B5     		push	{lr}
 797              	.LCFI33:
 798              		.cfi_def_cfa_offset 4
 799              		.cfi_offset 14, -4
 800 0002 83B0     		sub	sp, sp, #12
 801              	.LCFI34:
 802              		.cfi_def_cfa_offset 16
 111:Core/MyLib/Src/sx126x.c ****     sendOpcode(hspi, OPCODE_SET_TX_PARAMS, TxParams, 2);
 803              		.loc 1 111 5 is_stmt 1 view .LVU165
 111:Core/MyLib/Src/sx126x.c ****     sendOpcode(hspi, OPCODE_SET_TX_PARAMS, TxParams, 2);
 804              		.loc 1 111 33 is_stmt 0 view .LVU166
 805 0004 0B7A     		ldrb	r3, [r1, #8]	@ zero_extendqisi2
 111:Core/MyLib/Src/sx126x.c ****     sendOpcode(hspi, OPCODE_SET_TX_PARAMS, TxParams, 2);
 806              		.loc 1 111 13 view .LVU167
 807 0006 8DF80430 		strb	r3, [sp, #4]
 111:Core/MyLib/Src/sx126x.c ****     sendOpcode(hspi, OPCODE_SET_TX_PARAMS, TxParams, 2);
 808              		.loc 1 111 47 view .LVU168
ARM GAS  C:\Users\vladk\AppData\Local\Temp\ccklnA5P.s 			page 21


 809 000a 4B7A     		ldrb	r3, [r1, #9]	@ zero_extendqisi2
 111:Core/MyLib/Src/sx126x.c ****     sendOpcode(hspi, OPCODE_SET_TX_PARAMS, TxParams, 2);
 810              		.loc 1 111 13 view .LVU169
 811 000c 8DF80530 		strb	r3, [sp, #5]
 112:Core/MyLib/Src/sx126x.c **** }
 812              		.loc 1 112 5 is_stmt 1 view .LVU170
 813 0010 0223     		movs	r3, #2
 814 0012 01AA     		add	r2, sp, #4
 815 0014 8E21     		movs	r1, #142
 816              	.LVL63:
 112:Core/MyLib/Src/sx126x.c **** }
 817              		.loc 1 112 5 is_stmt 0 view .LVU171
 818 0016 FFF7FEFF 		bl	sendOpcode
 819              	.LVL64:
 113:Core/MyLib/Src/sx126x.c **** // Устанавливает место хранения буффера
 820              		.loc 1 113 1 view .LVU172
 821 001a 03B0     		add	sp, sp, #12
 822              	.LCFI35:
 823              		.cfi_def_cfa_offset 4
 824              		@ sp needed
 825 001c 5DF804FB 		ldr	pc, [sp], #4
 826              		.cfi_endproc
 827              	.LFE76:
 829              		.section	.text.SetBufferBaseAddress,"ax",%progbits
 830              		.align	1
 831              		.global	SetBufferBaseAddress
 832              		.syntax unified
 833              		.thumb
 834              		.thumb_func
 835              		.fpu softvfp
 837              	SetBufferBaseAddress:
 838              	.LVL65:
 839              	.LFB77:
 115:Core/MyLib/Src/sx126x.c ****     uint8_t BaseAdress[2] = {modem->TX_Base_Address, modem->RX_Base_Address};
 840              		.loc 1 115 70 is_stmt 1 view -0
 841              		.cfi_startproc
 842              		@ args = 0, pretend = 0, frame = 8
 843              		@ frame_needed = 0, uses_anonymous_args = 0
 115:Core/MyLib/Src/sx126x.c ****     uint8_t BaseAdress[2] = {modem->TX_Base_Address, modem->RX_Base_Address};
 844              		.loc 1 115 70 is_stmt 0 view .LVU174
 845 0000 00B5     		push	{lr}
 846              	.LCFI36:
 847              		.cfi_def_cfa_offset 4
 848              		.cfi_offset 14, -4
 849 0002 83B0     		sub	sp, sp, #12
 850              	.LCFI37:
 851              		.cfi_def_cfa_offset 16
 116:Core/MyLib/Src/sx126x.c ****     sendOpcode(hspi, OPCODE_SET_BUFFER_BASE_ADDR, BaseAdress, 2);
 852              		.loc 1 116 5 is_stmt 1 view .LVU175
 116:Core/MyLib/Src/sx126x.c ****     sendOpcode(hspi, OPCODE_SET_BUFFER_BASE_ADDR, BaseAdress, 2);
 853              		.loc 1 116 35 is_stmt 0 view .LVU176
 854 0004 8B7A     		ldrb	r3, [r1, #10]	@ zero_extendqisi2
 116:Core/MyLib/Src/sx126x.c ****     sendOpcode(hspi, OPCODE_SET_BUFFER_BASE_ADDR, BaseAdress, 2);
 855              		.loc 1 116 13 view .LVU177
 856 0006 8DF80430 		strb	r3, [sp, #4]
 116:Core/MyLib/Src/sx126x.c ****     sendOpcode(hspi, OPCODE_SET_BUFFER_BASE_ADDR, BaseAdress, 2);
 857              		.loc 1 116 59 view .LVU178
ARM GAS  C:\Users\vladk\AppData\Local\Temp\ccklnA5P.s 			page 22


 858 000a CB7A     		ldrb	r3, [r1, #11]	@ zero_extendqisi2
 116:Core/MyLib/Src/sx126x.c ****     sendOpcode(hspi, OPCODE_SET_BUFFER_BASE_ADDR, BaseAdress, 2);
 859              		.loc 1 116 13 view .LVU179
 860 000c 8DF80530 		strb	r3, [sp, #5]
 117:Core/MyLib/Src/sx126x.c **** }
 861              		.loc 1 117 5 is_stmt 1 view .LVU180
 862 0010 0223     		movs	r3, #2
 863 0012 01AA     		add	r2, sp, #4
 864 0014 8F21     		movs	r1, #143
 865              	.LVL66:
 117:Core/MyLib/Src/sx126x.c **** }
 866              		.loc 1 117 5 is_stmt 0 view .LVU181
 867 0016 FFF7FEFF 		bl	sendOpcode
 868              	.LVL67:
 118:Core/MyLib/Src/sx126x.c **** // Параметры модуляции
 869              		.loc 1 118 1 view .LVU182
 870 001a 03B0     		add	sp, sp, #12
 871              	.LCFI38:
 872              		.cfi_def_cfa_offset 4
 873              		@ sp needed
 874 001c 5DF804FB 		ldr	pc, [sp], #4
 875              		.cfi_endproc
 876              	.LFE77:
 878              		.section	.text.SetModulationParams,"ax",%progbits
 879              		.align	1
 880              		.global	SetModulationParams
 881              		.syntax unified
 882              		.thumb
 883              		.thumb_func
 884              		.fpu softvfp
 886              	SetModulationParams:
 887              	.LVL68:
 888              	.LFB78:
 120:Core/MyLib/Src/sx126x.c ****     uint8_t ModulationParams[8] = {modem->spredingFactor, modem->BandWidth, modem->crcRate, modem->
 889              		.loc 1 120 69 is_stmt 1 view -0
 890              		.cfi_startproc
 891              		@ args = 0, pretend = 0, frame = 8
 892              		@ frame_needed = 0, uses_anonymous_args = 0
 120:Core/MyLib/Src/sx126x.c ****     uint8_t ModulationParams[8] = {modem->spredingFactor, modem->BandWidth, modem->crcRate, modem->
 893              		.loc 1 120 69 is_stmt 0 view .LVU184
 894 0000 00B5     		push	{lr}
 895              	.LCFI39:
 896              		.cfi_def_cfa_offset 4
 897              		.cfi_offset 14, -4
 898 0002 83B0     		sub	sp, sp, #12
 899              	.LCFI40:
 900              		.cfi_def_cfa_offset 16
 121:Core/MyLib/Src/sx126x.c ****     sendOpcode(hspi, OPCODE_SET_MODULATION_PARAMS, ModulationParams, 8);
 901              		.loc 1 121 5 is_stmt 1 view .LVU185
 121:Core/MyLib/Src/sx126x.c ****     sendOpcode(hspi, OPCODE_SET_MODULATION_PARAMS, ModulationParams, 8);
 902              		.loc 1 121 41 is_stmt 0 view .LVU186
 903 0004 0B7B     		ldrb	r3, [r1, #12]	@ zero_extendqisi2
 121:Core/MyLib/Src/sx126x.c ****     sendOpcode(hspi, OPCODE_SET_MODULATION_PARAMS, ModulationParams, 8);
 904              		.loc 1 121 13 view .LVU187
 905 0006 8DF80030 		strb	r3, [sp]
 121:Core/MyLib/Src/sx126x.c ****     sendOpcode(hspi, OPCODE_SET_MODULATION_PARAMS, ModulationParams, 8);
 906              		.loc 1 121 64 view .LVU188
ARM GAS  C:\Users\vladk\AppData\Local\Temp\ccklnA5P.s 			page 23


 907 000a 4B7B     		ldrb	r3, [r1, #13]	@ zero_extendqisi2
 121:Core/MyLib/Src/sx126x.c ****     sendOpcode(hspi, OPCODE_SET_MODULATION_PARAMS, ModulationParams, 8);
 908              		.loc 1 121 13 view .LVU189
 909 000c 8DF80130 		strb	r3, [sp, #1]
 121:Core/MyLib/Src/sx126x.c ****     sendOpcode(hspi, OPCODE_SET_MODULATION_PARAMS, ModulationParams, 8);
 910              		.loc 1 121 82 view .LVU190
 911 0010 8B7B     		ldrb	r3, [r1, #14]	@ zero_extendqisi2
 121:Core/MyLib/Src/sx126x.c ****     sendOpcode(hspi, OPCODE_SET_MODULATION_PARAMS, ModulationParams, 8);
 912              		.loc 1 121 13 view .LVU191
 913 0012 8DF80230 		strb	r3, [sp, #2]
 121:Core/MyLib/Src/sx126x.c ****     sendOpcode(hspi, OPCODE_SET_MODULATION_PARAMS, ModulationParams, 8);
 914              		.loc 1 121 98 view .LVU192
 915 0016 CB7B     		ldrb	r3, [r1, #15]	@ zero_extendqisi2
 121:Core/MyLib/Src/sx126x.c ****     sendOpcode(hspi, OPCODE_SET_MODULATION_PARAMS, ModulationParams, 8);
 916              		.loc 1 121 13 view .LVU193
 917 0018 8DF80330 		strb	r3, [sp, #3]
 918 001c 0023     		movs	r3, #0
 919 001e 8DF80430 		strb	r3, [sp, #4]
 920 0022 8DF80530 		strb	r3, [sp, #5]
 921 0026 8DF80630 		strb	r3, [sp, #6]
 922 002a 8DF80730 		strb	r3, [sp, #7]
 122:Core/MyLib/Src/sx126x.c **** }
 923              		.loc 1 122 5 is_stmt 1 view .LVU194
 924 002e 0823     		movs	r3, #8
 925 0030 6A46     		mov	r2, sp
 926 0032 8B21     		movs	r1, #139
 927              	.LVL69:
 122:Core/MyLib/Src/sx126x.c **** }
 928              		.loc 1 122 5 is_stmt 0 view .LVU195
 929 0034 FFF7FEFF 		bl	sendOpcode
 930              	.LVL70:
 123:Core/MyLib/Src/sx126x.c **** // Слово синхронизации
 931              		.loc 1 123 1 view .LVU196
 932 0038 03B0     		add	sp, sp, #12
 933              	.LCFI41:
 934              		.cfi_def_cfa_offset 4
 935              		@ sp needed
 936 003a 5DF804FB 		ldr	pc, [sp], #4
 937              		.cfi_endproc
 938              	.LFE78:
 940              		.section	.text.WriteReg,"ax",%progbits
 941              		.align	1
 942              		.global	WriteReg
 943              		.syntax unified
 944              		.thumb
 945              		.thumb_func
 946              		.fpu softvfp
 948              	WriteReg:
 949              	.LVL71:
 950              	.LFB81:
 140:Core/MyLib/Src/sx126x.c ****     uint8_t buf[len + 2];
 951              		.loc 1 140 85 is_stmt 1 view -0
 952              		.cfi_startproc
 953              		@ args = 0, pretend = 0, frame = 0
 954              		@ frame_needed = 1, uses_anonymous_args = 0
 140:Core/MyLib/Src/sx126x.c ****     uint8_t buf[len + 2];
 955              		.loc 1 140 85 is_stmt 0 view .LVU198
ARM GAS  C:\Users\vladk\AppData\Local\Temp\ccklnA5P.s 			page 24


 956 0000 98B5     		push	{r3, r4, r7, lr}
 957              	.LCFI42:
 958              		.cfi_def_cfa_offset 16
 959              		.cfi_offset 3, -16
 960              		.cfi_offset 4, -12
 961              		.cfi_offset 7, -8
 962              		.cfi_offset 14, -4
 963 0002 00AF     		add	r7, sp, #0
 964              	.LCFI43:
 965              		.cfi_def_cfa_register 7
 966 0004 1446     		mov	r4, r2
 967 0006 4FF0000C 		mov	ip, #0
 141:Core/MyLib/Src/sx126x.c ****     buf[0] = adress >> 8;
 968              		.loc 1 141 5 is_stmt 1 view .LVU199
 969              	.LVL72:
 141:Core/MyLib/Src/sx126x.c ****     buf[0] = adress >> 8;
 970              		.loc 1 141 13 is_stmt 0 view .LVU200
 971 000a 03F10902 		add	r2, r3, #9
 972              	.LVL73:
 141:Core/MyLib/Src/sx126x.c ****     buf[0] = adress >> 8;
 973              		.loc 1 141 13 view .LVU201
 974 000e D208     		lsrs	r2, r2, #3
 975 0010 EE46     		mov	lr, sp
 976 0012 AEEBC202 		sub	r2, lr, r2, lsl #3
 977 0016 9546     		mov	sp, r2
 978              	.LVL74:
 142:Core/MyLib/Src/sx126x.c ****     buf[1] = adress & 0xFF;
 979              		.loc 1 142 5 is_stmt 1 view .LVU202
 142:Core/MyLib/Src/sx126x.c ****     buf[1] = adress & 0xFF;
 980              		.loc 1 142 12 is_stmt 0 view .LVU203
 981 0018 4FEA112E 		lsr	lr, r1, #8
 982 001c 8DF800E0 		strb	lr, [sp]
 143:Core/MyLib/Src/sx126x.c ****     for(uint8_t i; i < len; i++) buf[i + 2] = data[i];
 983              		.loc 1 143 5 is_stmt 1 view .LVU204
 143:Core/MyLib/Src/sx126x.c ****     for(uint8_t i; i < len; i++) buf[i + 2] = data[i];
 984              		.loc 1 143 12 is_stmt 0 view .LVU205
 985 0020 8DF80110 		strb	r1, [sp, #1]
 144:Core/MyLib/Src/sx126x.c ****     sendOpcode(hspi, OPCODE_WRITE_REGISTER, buf, len);
 986              		.loc 1 144 5 is_stmt 1 view .LVU206
 987              	.LBB3:
 144:Core/MyLib/Src/sx126x.c ****     sendOpcode(hspi, OPCODE_WRITE_REGISTER, buf, len);
 988              		.loc 1 144 9 view .LVU207
 144:Core/MyLib/Src/sx126x.c ****     sendOpcode(hspi, OPCODE_WRITE_REGISTER, buf, len);
 989              		.loc 1 144 5 is_stmt 0 view .LVU208
 990 0024 09E0     		b	.L47
 991              	.LVL75:
 992              	.L48:
 144:Core/MyLib/Src/sx126x.c ****     sendOpcode(hspi, OPCODE_WRITE_REGISTER, buf, len);
 993              		.loc 1 144 34 is_stmt 1 discriminator 2 view .LVU209
 144:Core/MyLib/Src/sx126x.c ****     sendOpcode(hspi, OPCODE_WRITE_REGISTER, buf, len);
 994              		.loc 1 144 40 is_stmt 0 discriminator 2 view .LVU210
 995 0026 0CF10201 		add	r1, ip, #2
 144:Core/MyLib/Src/sx126x.c ****     sendOpcode(hspi, OPCODE_WRITE_REGISTER, buf, len);
 996              		.loc 1 144 51 discriminator 2 view .LVU211
 997 002a 14F80CE0 		ldrb	lr, [r4, ip]	@ zero_extendqisi2
 144:Core/MyLib/Src/sx126x.c ****     sendOpcode(hspi, OPCODE_WRITE_REGISTER, buf, len);
 998              		.loc 1 144 45 discriminator 2 view .LVU212
ARM GAS  C:\Users\vladk\AppData\Local\Temp\ccklnA5P.s 			page 25


 999 002e 02F801E0 		strb	lr, [r2, r1]
 144:Core/MyLib/Src/sx126x.c ****     sendOpcode(hspi, OPCODE_WRITE_REGISTER, buf, len);
 1000              		.loc 1 144 29 is_stmt 1 discriminator 2 view .LVU213
 144:Core/MyLib/Src/sx126x.c ****     sendOpcode(hspi, OPCODE_WRITE_REGISTER, buf, len);
 1001              		.loc 1 144 30 is_stmt 0 discriminator 2 view .LVU214
 1002 0032 0CF1010C 		add	ip, ip, #1
 1003              	.LVL76:
 144:Core/MyLib/Src/sx126x.c ****     sendOpcode(hspi, OPCODE_WRITE_REGISTER, buf, len);
 1004              		.loc 1 144 30 discriminator 2 view .LVU215
 1005 0036 5FFA8CFC 		uxtb	ip, ip
 1006              	.LVL77:
 1007              	.L47:
 144:Core/MyLib/Src/sx126x.c ****     sendOpcode(hspi, OPCODE_WRITE_REGISTER, buf, len);
 1008              		.loc 1 144 20 is_stmt 1 discriminator 1 view .LVU216
 144:Core/MyLib/Src/sx126x.c ****     sendOpcode(hspi, OPCODE_WRITE_REGISTER, buf, len);
 1009              		.loc 1 144 22 is_stmt 0 discriminator 1 view .LVU217
 1010 003a 1FFA8CF1 		uxth	r1, ip
 144:Core/MyLib/Src/sx126x.c ****     sendOpcode(hspi, OPCODE_WRITE_REGISTER, buf, len);
 1011              		.loc 1 144 5 discriminator 1 view .LVU218
 1012 003e 9942     		cmp	r1, r3
 1013 0040 F1D3     		bcc	.L48
 1014              	.LBE3:
 145:Core/MyLib/Src/sx126x.c **** }
 1015              		.loc 1 145 5 is_stmt 1 view .LVU219
 1016 0042 0D21     		movs	r1, #13
 1017 0044 FFF7FEFF 		bl	sendOpcode
 1018              	.LVL78:
 146:Core/MyLib/Src/sx126x.c **** // Чтение с регистра
 1019              		.loc 1 146 1 is_stmt 0 view .LVU220
 1020 0048 BD46     		mov	sp, r7
 1021              	.LCFI44:
 1022              		.cfi_def_cfa_register 13
 1023              	.LVL79:
 146:Core/MyLib/Src/sx126x.c **** // Чтение с регистра
 1024              		.loc 1 146 1 view .LVU221
 1025              		@ sp needed
 1026 004a 98BD     		pop	{r3, r4, r7, pc}
 146:Core/MyLib/Src/sx126x.c **** // Чтение с регистра
 1027              		.loc 1 146 1 view .LVU222
 1028              		.cfi_endproc
 1029              	.LFE81:
 1031              		.section	.text.SetSyncWord,"ax",%progbits
 1032              		.align	1
 1033              		.global	SetSyncWord
 1034              		.syntax unified
 1035              		.thumb
 1036              		.thumb_func
 1037              		.fpu softvfp
 1039              	SetSyncWord:
 1040              	.LVL80:
 1041              	.LFB79:
 125:Core/MyLib/Src/sx126x.c ****     uint16_t adress = 0x0740;
 1042              		.loc 1 125 61 is_stmt 1 view -0
 1043              		.cfi_startproc
 1044              		@ args = 0, pretend = 0, frame = 8
 1045              		@ frame_needed = 0, uses_anonymous_args = 0
 125:Core/MyLib/Src/sx126x.c ****     uint16_t adress = 0x0740;
ARM GAS  C:\Users\vladk\AppData\Local\Temp\ccklnA5P.s 			page 26


 1046              		.loc 1 125 61 is_stmt 0 view .LVU224
 1047 0000 00B5     		push	{lr}
 1048              	.LCFI45:
 1049              		.cfi_def_cfa_offset 4
 1050              		.cfi_offset 14, -4
 1051 0002 83B0     		sub	sp, sp, #12
 1052              	.LCFI46:
 1053              		.cfi_def_cfa_offset 16
 126:Core/MyLib/Src/sx126x.c ****     uint8_t data[2] = {modem->SyncWord >> 8, modem->SyncWord & 0xFF};
 1054              		.loc 1 126 5 is_stmt 1 view .LVU225
 1055              	.LVL81:
 127:Core/MyLib/Src/sx126x.c ****     WriteReg(hspi, adress, data, 2);
 1056              		.loc 1 127 5 view .LVU226
 127:Core/MyLib/Src/sx126x.c ****     WriteReg(hspi, adress, data, 2);
 1057              		.loc 1 127 29 is_stmt 0 view .LVU227
 1058 0004 0B8A     		ldrh	r3, [r1, #16]
 127:Core/MyLib/Src/sx126x.c ****     WriteReg(hspi, adress, data, 2);
 1059              		.loc 1 127 13 view .LVU228
 1060 0006 1A0A     		lsrs	r2, r3, #8
 1061 0008 8DF80420 		strb	r2, [sp, #4]
 1062 000c 8DF80530 		strb	r3, [sp, #5]
 128:Core/MyLib/Src/sx126x.c **** }
 1063              		.loc 1 128 5 is_stmt 1 view .LVU229
 1064 0010 0223     		movs	r3, #2
 1065 0012 01AA     		add	r2, sp, #4
 1066 0014 4FF4E861 		mov	r1, #1856
 1067              	.LVL82:
 128:Core/MyLib/Src/sx126x.c **** }
 1068              		.loc 1 128 5 is_stmt 0 view .LVU230
 1069 0018 FFF7FEFF 		bl	WriteReg
 1070              	.LVL83:
 129:Core/MyLib/Src/sx126x.c **** // Получить статус отправки данных
 1071              		.loc 1 129 1 view .LVU231
 1072 001c 03B0     		add	sp, sp, #12
 1073              	.LCFI47:
 1074              		.cfi_def_cfa_offset 4
 1075              		@ sp needed
 1076 001e 5DF804FB 		ldr	pc, [sp], #4
 1077              		.cfi_endproc
 1078              	.LFE79:
 1080              		.section	.text.SetPacketParams,"ax",%progbits
 1081              		.align	1
 1082              		.global	SetPacketParams
 1083              		.syntax unified
 1084              		.thumb
 1085              		.thumb_func
 1086              		.fpu softvfp
 1088              	SetPacketParams:
 1089              	.LVL84:
 1090              	.LFB83:
 156:Core/MyLib/Src/sx126x.c ****     uint8_t buf[9] = {0x00, 0x00, 0x00, 0x00, 0x00, 0x00, 0x00, 0x00, 0x00};
 1091              		.loc 1 156 86 is_stmt 1 view -0
 1092              		.cfi_startproc
 1093              		@ args = 8, pretend = 0, frame = 16
 1094              		@ frame_needed = 0, uses_anonymous_args = 0
 156:Core/MyLib/Src/sx126x.c ****     uint8_t buf[9] = {0x00, 0x00, 0x00, 0x00, 0x00, 0x00, 0x00, 0x00, 0x00};
 1095              		.loc 1 156 86 is_stmt 0 view .LVU233
ARM GAS  C:\Users\vladk\AppData\Local\Temp\ccklnA5P.s 			page 27


 1096 0000 30B5     		push	{r4, r5, lr}
 1097              	.LCFI48:
 1098              		.cfi_def_cfa_offset 12
 1099              		.cfi_offset 4, -12
 1100              		.cfi_offset 5, -8
 1101              		.cfi_offset 14, -4
 1102 0002 85B0     		sub	sp, sp, #20
 1103              	.LCFI49:
 1104              		.cfi_def_cfa_offset 32
 1105 0004 0446     		mov	r4, r0
 1106 0006 8E46     		mov	lr, r1
 1107 0008 1546     		mov	r5, r2
 157:Core/MyLib/Src/sx126x.c ****     buf[0] = preamble_len >> 8;
 1108              		.loc 1 157 5 is_stmt 1 view .LVU234
 157:Core/MyLib/Src/sx126x.c ****     buf[0] = preamble_len >> 8;
 1109              		.loc 1 157 13 is_stmt 0 view .LVU235
 1110 000a 0DF1040C 		add	ip, sp, #4
 1111 000e 104A     		ldr	r2, .L54
 1112              	.LVL85:
 157:Core/MyLib/Src/sx126x.c ****     buf[0] = preamble_len >> 8;
 1113              		.loc 1 157 13 view .LVU236
 1114 0010 07CA     		ldm	r2, {r0, r1, r2}
 1115              	.LVL86:
 157:Core/MyLib/Src/sx126x.c ****     buf[0] = preamble_len >> 8;
 1116              		.loc 1 157 13 view .LVU237
 1117 0012 ACE80300 		stmia	ip!, {r0, r1}
 1118 0016 8CF80020 		strb	r2, [ip]
 158:Core/MyLib/Src/sx126x.c ****     buf[1] = preamble_len & 0xFF;
 1119              		.loc 1 158 5 is_stmt 1 view .LVU238
 158:Core/MyLib/Src/sx126x.c ****     buf[1] = preamble_len & 0xFF;
 1120              		.loc 1 158 12 is_stmt 0 view .LVU239
 1121 001a 4FEA1E22 		lsr	r2, lr, #8
 1122 001e 8DF80420 		strb	r2, [sp, #4]
 159:Core/MyLib/Src/sx126x.c ****     buf[2] = header_type;
 1123              		.loc 1 159 5 is_stmt 1 view .LVU240
 159:Core/MyLib/Src/sx126x.c ****     buf[2] = header_type;
 1124              		.loc 1 159 12 is_stmt 0 view .LVU241
 1125 0022 8DF805E0 		strb	lr, [sp, #5]
 160:Core/MyLib/Src/sx126x.c ****     buf[3] = payload_len;
 1126              		.loc 1 160 5 is_stmt 1 view .LVU242
 160:Core/MyLib/Src/sx126x.c ****     buf[3] = payload_len;
 1127              		.loc 1 160 12 is_stmt 0 view .LVU243
 1128 0026 8DF80650 		strb	r5, [sp, #6]
 161:Core/MyLib/Src/sx126x.c ****     buf[4] = crc_type;
 1129              		.loc 1 161 5 is_stmt 1 view .LVU244
 161:Core/MyLib/Src/sx126x.c ****     buf[4] = crc_type;
 1130              		.loc 1 161 12 is_stmt 0 view .LVU245
 1131 002a 8DF80730 		strb	r3, [sp, #7]
 162:Core/MyLib/Src/sx126x.c ****     buf[5] = invert_iq;
 1132              		.loc 1 162 5 is_stmt 1 view .LVU246
 162:Core/MyLib/Src/sx126x.c ****     buf[5] = invert_iq;
 1133              		.loc 1 162 12 is_stmt 0 view .LVU247
 1134 002e 9DF82030 		ldrb	r3, [sp, #32]	@ zero_extendqisi2
 1135              	.LVL87:
 162:Core/MyLib/Src/sx126x.c ****     buf[5] = invert_iq;
 1136              		.loc 1 162 12 view .LVU248
 1137 0032 8DF80830 		strb	r3, [sp, #8]
ARM GAS  C:\Users\vladk\AppData\Local\Temp\ccklnA5P.s 			page 28


 163:Core/MyLib/Src/sx126x.c ****     sendOpcode(hspi, OPCODE_SET_PACKET_PARAMS, buf, 8);
 1138              		.loc 1 163 5 is_stmt 1 view .LVU249
 163:Core/MyLib/Src/sx126x.c ****     sendOpcode(hspi, OPCODE_SET_PACKET_PARAMS, buf, 8);
 1139              		.loc 1 163 12 is_stmt 0 view .LVU250
 1140 0036 9DF82430 		ldrb	r3, [sp, #36]	@ zero_extendqisi2
 1141 003a 8DF80930 		strb	r3, [sp, #9]
 164:Core/MyLib/Src/sx126x.c **** }
 1142              		.loc 1 164 5 is_stmt 1 view .LVU251
 1143 003e 0823     		movs	r3, #8
 1144 0040 01AA     		add	r2, sp, #4
 1145 0042 8C21     		movs	r1, #140
 1146 0044 2046     		mov	r0, r4
 1147 0046 FFF7FEFF 		bl	sendOpcode
 1148              	.LVL88:
 165:Core/MyLib/Src/sx126x.c **** // Запись в буфер
 1149              		.loc 1 165 1 is_stmt 0 view .LVU252
 1150 004a 05B0     		add	sp, sp, #20
 1151              	.LCFI50:
 1152              		.cfi_def_cfa_offset 12
 1153              		@ sp needed
 1154 004c 30BD     		pop	{r4, r5, pc}
 1155              	.LVL89:
 1156              	.L55:
 165:Core/MyLib/Src/sx126x.c **** // Запись в буфер
 1157              		.loc 1 165 1 view .LVU253
 1158 004e 00BF     		.align	2
 1159              	.L54:
 1160 0050 04000000 		.word	.LANCHOR0+4
 1161              		.cfi_endproc
 1162              	.LFE83:
 1164              		.section	.text.sx126x_Init,"ax",%progbits
 1165              		.align	1
 1166              		.global	sx126x_Init
 1167              		.syntax unified
 1168              		.thumb
 1169              		.thumb_func
 1170              		.fpu softvfp
 1172              	sx126x_Init:
 1173              	.LVL90:
 1174              	.LFB65:
   8:Core/MyLib/Src/sx126x.c ****     SetStandby(hspi, modem);    // 1
 1175              		.loc 1 8 61 is_stmt 1 view -0
 1176              		.cfi_startproc
 1177              		@ args = 0, pretend = 0, frame = 0
 1178              		@ frame_needed = 0, uses_anonymous_args = 0
   8:Core/MyLib/Src/sx126x.c ****     SetStandby(hspi, modem);    // 1
 1179              		.loc 1 8 61 is_stmt 0 view .LVU255
 1180 0000 30B5     		push	{r4, r5, lr}
 1181              	.LCFI51:
 1182              		.cfi_def_cfa_offset 12
 1183              		.cfi_offset 4, -12
 1184              		.cfi_offset 5, -8
 1185              		.cfi_offset 14, -4
 1186 0002 83B0     		sub	sp, sp, #12
 1187              	.LCFI52:
 1188              		.cfi_def_cfa_offset 24
 1189 0004 0546     		mov	r5, r0
ARM GAS  C:\Users\vladk\AppData\Local\Temp\ccklnA5P.s 			page 29


 1190 0006 0C46     		mov	r4, r1
   9:Core/MyLib/Src/sx126x.c ****     SetPacketType(hspi, modem);
 1191              		.loc 1 9 5 is_stmt 1 view .LVU256
 1192 0008 FFF7FEFF 		bl	SetStandby
 1193              	.LVL91:
  10:Core/MyLib/Src/sx126x.c ****     Calibrate(hspi, modem, 0xFF);   //2
 1194              		.loc 1 10 5 view .LVU257
 1195 000c 2146     		mov	r1, r4
 1196 000e 2846     		mov	r0, r5
 1197 0010 FFF7FEFF 		bl	SetPacketType
 1198              	.LVL92:
  11:Core/MyLib/Src/sx126x.c ****     SetRfFrequency(hspi, modem);    //3
 1199              		.loc 1 11 5 view .LVU258
 1200 0014 FF22     		movs	r2, #255
 1201 0016 2146     		mov	r1, r4
 1202 0018 2846     		mov	r0, r5
 1203 001a FFF7FEFF 		bl	Calibrate
 1204              	.LVL93:
  12:Core/MyLib/Src/sx126x.c ****     SetPaConfig(hspi, 0x02, 0x03, 0x00, 0x01);  //4
 1205              		.loc 1 12 5 view .LVU259
 1206 001e 2146     		mov	r1, r4
 1207 0020 2846     		mov	r0, r5
 1208 0022 FFF7FEFF 		bl	SetRfFrequency
 1209              	.LVL94:
  13:Core/MyLib/Src/sx126x.c ****     SetTxParams(hspi, modem);   //5
 1210              		.loc 1 13 5 view .LVU260
 1211 0026 0123     		movs	r3, #1
 1212 0028 0093     		str	r3, [sp]
 1213 002a 0023     		movs	r3, #0
 1214 002c 0322     		movs	r2, #3
 1215 002e 0221     		movs	r1, #2
 1216 0030 2846     		mov	r0, r5
 1217 0032 FFF7FEFF 		bl	SetPaConfig
 1218              	.LVL95:
  14:Core/MyLib/Src/sx126x.c ****     SetModulationParams(hspi, modem);   //6
 1219              		.loc 1 14 5 view .LVU261
 1220 0036 2146     		mov	r1, r4
 1221 0038 2846     		mov	r0, r5
 1222 003a FFF7FEFF 		bl	SetTxParams
 1223              	.LVL96:
  15:Core/MyLib/Src/sx126x.c ****     SetPacketParams(hspi, modem->PreambleLen, modem->HeaderType, modem->payloadLength, modem->crcTy
 1224              		.loc 1 15 5 view .LVU262
 1225 003e 2146     		mov	r1, r4
 1226 0040 2846     		mov	r0, r5
 1227 0042 FFF7FEFF 		bl	SetModulationParams
 1228              	.LVL97:
  16:Core/MyLib/Src/sx126x.c ****     // GetDeviceErrors(hspi);
 1229              		.loc 1 16 5 view .LVU263
 1230 0046 E37D     		ldrb	r3, [r4, #23]	@ zero_extendqisi2
 1231 0048 0193     		str	r3, [sp, #4]
 1232 004a A37D     		ldrb	r3, [r4, #22]	@ zero_extendqisi2
 1233 004c 0093     		str	r3, [sp]
 1234 004e 237D     		ldrb	r3, [r4, #20]	@ zero_extendqisi2
 1235 0050 627D     		ldrb	r2, [r4, #21]	@ zero_extendqisi2
 1236 0052 618A     		ldrh	r1, [r4, #18]
 1237 0054 2846     		mov	r0, r5
 1238 0056 FFF7FEFF 		bl	SetPacketParams
ARM GAS  C:\Users\vladk\AppData\Local\Temp\ccklnA5P.s 			page 30


 1239              	.LVL98:
  21:Core/MyLib/Src/sx126x.c ****     // SetBufferBaseAddress(hspi, modem);
 1240              		.loc 1 21 5 view .LVU264
 1241 005a 2146     		mov	r1, r4
 1242 005c 2846     		mov	r0, r5
 1243 005e FFF7FEFF 		bl	SetSyncWord
 1244              	.LVL99:
  23:Core/MyLib/Src/sx126x.c **** void sx126x_SendData(SPI_HandleTypeDef* hspi, sx126x_cfg* modem, uint8_t* data, uint16_t data_len){
 1245              		.loc 1 23 1 is_stmt 0 view .LVU265
 1246 0062 03B0     		add	sp, sp, #12
 1247              	.LCFI53:
 1248              		.cfi_def_cfa_offset 12
 1249              		@ sp needed
 1250 0064 30BD     		pop	{r4, r5, pc}
  23:Core/MyLib/Src/sx126x.c **** void sx126x_SendData(SPI_HandleTypeDef* hspi, sx126x_cfg* modem, uint8_t* data, uint16_t data_len){
 1251              		.loc 1 23 1 view .LVU266
 1252              		.cfi_endproc
 1253              	.LFE65:
 1255              		.section	.text.WriteBuffer,"ax",%progbits
 1256              		.align	1
 1257              		.global	WriteBuffer
 1258              		.syntax unified
 1259              		.thumb
 1260              		.thumb_func
 1261              		.fpu softvfp
 1263              	WriteBuffer:
 1264              	.LVL100:
 1265              	.LFB84:
 167:Core/MyLib/Src/sx126x.c ****     uint8_t buf[len +1];
 1266              		.loc 1 167 89 is_stmt 1 view -0
 1267              		.cfi_startproc
 1268              		@ args = 0, pretend = 0, frame = 0
 1269              		@ frame_needed = 1, uses_anonymous_args = 0
 167:Core/MyLib/Src/sx126x.c ****     uint8_t buf[len +1];
 1270              		.loc 1 167 89 is_stmt 0 view .LVU268
 1271 0000 B0B5     		push	{r4, r5, r7, lr}
 1272              	.LCFI54:
 1273              		.cfi_def_cfa_offset 16
 1274              		.cfi_offset 4, -16
 1275              		.cfi_offset 5, -12
 1276              		.cfi_offset 7, -8
 1277              		.cfi_offset 14, -4
 1278 0002 00AF     		add	r7, sp, #0
 1279              	.LCFI55:
 1280              		.cfi_def_cfa_register 7
 1281 0004 1446     		mov	r4, r2
 1282 0006 1D46     		mov	r5, r3
 168:Core/MyLib/Src/sx126x.c ****     buf[0] = *offset;
 1283              		.loc 1 168 5 is_stmt 1 view .LVU269
 1284              	.LVL101:
 168:Core/MyLib/Src/sx126x.c ****     buf[0] = *offset;
 1285              		.loc 1 168 13 is_stmt 0 view .LVU270
 1286 0008 02F10803 		add	r3, r2, #8
 1287              	.LVL102:
 168:Core/MyLib/Src/sx126x.c ****     buf[0] = *offset;
 1288              		.loc 1 168 13 view .LVU271
 1289 000c DB08     		lsrs	r3, r3, #3
ARM GAS  C:\Users\vladk\AppData\Local\Temp\ccklnA5P.s 			page 31


 1290 000e 6A46     		mov	r2, sp
 1291              	.LVL103:
 168:Core/MyLib/Src/sx126x.c ****     buf[0] = *offset;
 1292              		.loc 1 168 13 view .LVU272
 1293 0010 A2EBC303 		sub	r3, r2, r3, lsl #3
 1294 0014 9D46     		mov	sp, r3
 1295 0016 6A46     		mov	r2, sp
 1296              	.LVL104:
 169:Core/MyLib/Src/sx126x.c ****     for(uint8_t i = 0; i < len; i++) buf[i + 1] = data[i];
 1297              		.loc 1 169 5 is_stmt 1 view .LVU273
 169:Core/MyLib/Src/sx126x.c ****     for(uint8_t i = 0; i < len; i++) buf[i + 1] = data[i];
 1298              		.loc 1 169 14 is_stmt 0 view .LVU274
 1299 0018 2B78     		ldrb	r3, [r5]	@ zero_extendqisi2
 169:Core/MyLib/Src/sx126x.c ****     for(uint8_t i = 0; i < len; i++) buf[i + 1] = data[i];
 1300              		.loc 1 169 12 view .LVU275
 1301 001a 8DF80030 		strb	r3, [sp]
 170:Core/MyLib/Src/sx126x.c ****     sendOpcode(hspi, OPCODE_WRITE_BUFFER, buf, len + 1);
 1302              		.loc 1 170 5 is_stmt 1 view .LVU276
 1303              	.LBB4:
 170:Core/MyLib/Src/sx126x.c ****     sendOpcode(hspi, OPCODE_WRITE_BUFFER, buf, len + 1);
 1304              		.loc 1 170 9 view .LVU277
 1305              	.LVL105:
 170:Core/MyLib/Src/sx126x.c ****     sendOpcode(hspi, OPCODE_WRITE_BUFFER, buf, len + 1);
 1306              		.loc 1 170 17 is_stmt 0 view .LVU278
 1307 001e 4FF0000C 		mov	ip, #0
 170:Core/MyLib/Src/sx126x.c ****     sendOpcode(hspi, OPCODE_WRITE_BUFFER, buf, len + 1);
 1308              		.loc 1 170 5 view .LVU279
 1309 0022 07E0     		b	.L59
 1310              	.LVL106:
 1311              	.L60:
 170:Core/MyLib/Src/sx126x.c ****     sendOpcode(hspi, OPCODE_WRITE_BUFFER, buf, len + 1);
 1312              		.loc 1 170 38 is_stmt 1 discriminator 3 view .LVU280
 170:Core/MyLib/Src/sx126x.c ****     sendOpcode(hspi, OPCODE_WRITE_BUFFER, buf, len + 1);
 1313              		.loc 1 170 44 is_stmt 0 discriminator 3 view .LVU281
 1314 0024 0CF1010E 		add	lr, ip, #1
 170:Core/MyLib/Src/sx126x.c ****     sendOpcode(hspi, OPCODE_WRITE_BUFFER, buf, len + 1);
 1315              		.loc 1 170 55 discriminator 3 view .LVU282
 1316 0028 11F80CC0 		ldrb	ip, [r1, ip]	@ zero_extendqisi2
 1317              	.LVL107:
 170:Core/MyLib/Src/sx126x.c ****     sendOpcode(hspi, OPCODE_WRITE_BUFFER, buf, len + 1);
 1318              		.loc 1 170 49 discriminator 3 view .LVU283
 1319 002c 02F80EC0 		strb	ip, [r2, lr]
 170:Core/MyLib/Src/sx126x.c ****     sendOpcode(hspi, OPCODE_WRITE_BUFFER, buf, len + 1);
 1320              		.loc 1 170 33 is_stmt 1 discriminator 3 view .LVU284
 170:Core/MyLib/Src/sx126x.c ****     sendOpcode(hspi, OPCODE_WRITE_BUFFER, buf, len + 1);
 1321              		.loc 1 170 34 is_stmt 0 discriminator 3 view .LVU285
 1322 0030 5FFA8EFC 		uxtb	ip, lr
 1323              	.LVL108:
 1324              	.L59:
 170:Core/MyLib/Src/sx126x.c ****     sendOpcode(hspi, OPCODE_WRITE_BUFFER, buf, len + 1);
 1325              		.loc 1 170 24 is_stmt 1 discriminator 1 view .LVU286
 170:Core/MyLib/Src/sx126x.c ****     sendOpcode(hspi, OPCODE_WRITE_BUFFER, buf, len + 1);
 1326              		.loc 1 170 26 is_stmt 0 discriminator 1 view .LVU287
 1327 0034 1FFA8CFE 		uxth	lr, ip
 170:Core/MyLib/Src/sx126x.c ****     sendOpcode(hspi, OPCODE_WRITE_BUFFER, buf, len + 1);
 1328              		.loc 1 170 5 discriminator 1 view .LVU288
 1329 0038 A645     		cmp	lr, r4
ARM GAS  C:\Users\vladk\AppData\Local\Temp\ccklnA5P.s 			page 32


 1330 003a F3D3     		bcc	.L60
 1331              	.LBE4:
 171:Core/MyLib/Src/sx126x.c ****     (*offset) += len;
 1332              		.loc 1 171 5 is_stmt 1 view .LVU289
 1333 003c 631C     		adds	r3, r4, #1
 1334 003e 9BB2     		uxth	r3, r3
 1335 0040 0E21     		movs	r1, #14
 1336              	.LVL109:
 171:Core/MyLib/Src/sx126x.c ****     (*offset) += len;
 1337              		.loc 1 171 5 is_stmt 0 view .LVU290
 1338 0042 FFF7FEFF 		bl	sendOpcode
 1339              	.LVL110:
 172:Core/MyLib/Src/sx126x.c **** }
 1340              		.loc 1 172 5 is_stmt 1 view .LVU291
 172:Core/MyLib/Src/sx126x.c **** }
 1341              		.loc 1 172 15 is_stmt 0 view .LVU292
 1342 0046 2A78     		ldrb	r2, [r5]	@ zero_extendqisi2
 1343 0048 1444     		add	r4, r4, r2
 1344 004a 2C70     		strb	r4, [r5]
 173:Core/MyLib/Src/sx126x.c **** // Усановка в режим передатчика
 1345              		.loc 1 173 1 view .LVU293
 1346 004c BD46     		mov	sp, r7
 1347              	.LCFI56:
 1348              		.cfi_def_cfa_register 13
 1349              	.LVL111:
 173:Core/MyLib/Src/sx126x.c **** // Усановка в режим передатчика
 1350              		.loc 1 173 1 view .LVU294
 1351              		@ sp needed
 1352 004e B0BD     		pop	{r4, r5, r7, pc}
 173:Core/MyLib/Src/sx126x.c **** // Усановка в режим передатчика
 1353              		.loc 1 173 1 view .LVU295
 1354              		.cfi_endproc
 1355              	.LFE84:
 1357              		.global	__aeabi_i2d
 1358              		.global	__aeabi_dmul
 1359              		.global	__aeabi_d2uiz
 1360              		.section	.text.SetTx,"ax",%progbits
 1361              		.align	1
 1362              		.global	SetTx
 1363              		.syntax unified
 1364              		.thumb
 1365              		.thumb_func
 1366              		.fpu softvfp
 1368              	SetTx:
 1369              	.LVL112:
 1370              	.LFB85:
 175:Core/MyLib/Src/sx126x.c ****     uint32_t timeout = (uint32_t)(timeout_ms / 0.015625);
 1371              		.loc 1 175 57 is_stmt 1 view -0
 1372              		.cfi_startproc
 1373              		@ args = 0, pretend = 0, frame = 8
 1374              		@ frame_needed = 0, uses_anonymous_args = 0
 175:Core/MyLib/Src/sx126x.c ****     uint32_t timeout = (uint32_t)(timeout_ms / 0.015625);
 1375              		.loc 1 175 57 is_stmt 0 view .LVU297
 1376 0000 10B5     		push	{r4, lr}
 1377              	.LCFI57:
 1378              		.cfi_def_cfa_offset 8
 1379              		.cfi_offset 4, -8
ARM GAS  C:\Users\vladk\AppData\Local\Temp\ccklnA5P.s 			page 33


 1380              		.cfi_offset 14, -4
 1381 0002 82B0     		sub	sp, sp, #8
 1382              	.LCFI58:
 1383              		.cfi_def_cfa_offset 16
 1384 0004 0446     		mov	r4, r0
 176:Core/MyLib/Src/sx126x.c ****     uint8_t data[3] = {(timeout >> 16) & 0xFF, (timeout >> 8) & 0xFF, timeout & 0xFF};
 1385              		.loc 1 176 5 is_stmt 1 view .LVU298
 176:Core/MyLib/Src/sx126x.c ****     uint8_t data[3] = {(timeout >> 16) & 0xFF, (timeout >> 8) & 0xFF, timeout & 0xFF};
 1386              		.loc 1 176 46 is_stmt 0 view .LVU299
 1387 0006 0846     		mov	r0, r1
 1388              	.LVL113:
 176:Core/MyLib/Src/sx126x.c ****     uint8_t data[3] = {(timeout >> 16) & 0xFF, (timeout >> 8) & 0xFF, timeout & 0xFF};
 1389              		.loc 1 176 46 view .LVU300
 1390 0008 FFF7FEFF 		bl	__aeabi_i2d
 1391              	.LVL114:
 176:Core/MyLib/Src/sx126x.c ****     uint8_t data[3] = {(timeout >> 16) & 0xFF, (timeout >> 8) & 0xFF, timeout & 0xFF};
 1392              		.loc 1 176 46 view .LVU301
 1393 000c 0022     		movs	r2, #0
 1394 000e 0A4B     		ldr	r3, .L64
 1395 0010 FFF7FEFF 		bl	__aeabi_dmul
 1396              	.LVL115:
 176:Core/MyLib/Src/sx126x.c ****     uint8_t data[3] = {(timeout >> 16) & 0xFF, (timeout >> 8) & 0xFF, timeout & 0xFF};
 1397              		.loc 1 176 14 view .LVU302
 1398 0014 FFF7FEFF 		bl	__aeabi_d2uiz
 1399              	.LVL116:
 177:Core/MyLib/Src/sx126x.c ****     sendOpcode(hspi, OPCODE_SET_TX, data, 3);
 1400              		.loc 1 177 5 is_stmt 1 view .LVU303
 177:Core/MyLib/Src/sx126x.c ****     sendOpcode(hspi, OPCODE_SET_TX, data, 3);
 1401              		.loc 1 177 33 is_stmt 0 view .LVU304
 1402 0018 030C     		lsrs	r3, r0, #16
 177:Core/MyLib/Src/sx126x.c ****     sendOpcode(hspi, OPCODE_SET_TX, data, 3);
 1403              		.loc 1 177 13 view .LVU305
 1404 001a 8DF80430 		strb	r3, [sp, #4]
 177:Core/MyLib/Src/sx126x.c ****     sendOpcode(hspi, OPCODE_SET_TX, data, 3);
 1405              		.loc 1 177 57 view .LVU306
 1406 001e 030A     		lsrs	r3, r0, #8
 177:Core/MyLib/Src/sx126x.c ****     sendOpcode(hspi, OPCODE_SET_TX, data, 3);
 1407              		.loc 1 177 13 view .LVU307
 1408 0020 8DF80530 		strb	r3, [sp, #5]
 1409 0024 8DF80600 		strb	r0, [sp, #6]
 178:Core/MyLib/Src/sx126x.c **** }
 1410              		.loc 1 178 5 is_stmt 1 view .LVU308
 1411 0028 0323     		movs	r3, #3
 1412 002a 01AA     		add	r2, sp, #4
 1413 002c 8321     		movs	r1, #131
 1414 002e 2046     		mov	r0, r4
 1415              	.LVL117:
 178:Core/MyLib/Src/sx126x.c **** }
 1416              		.loc 1 178 5 is_stmt 0 view .LVU309
 1417 0030 FFF7FEFF 		bl	sendOpcode
 1418              	.LVL118:
 179:Core/MyLib/Src/sx126x.c **** // Ставим в 1 бит прерывания
 1419              		.loc 1 179 1 view .LVU310
 1420 0034 02B0     		add	sp, sp, #8
 1421              	.LCFI59:
 1422              		.cfi_def_cfa_offset 8
 1423              		@ sp needed
ARM GAS  C:\Users\vladk\AppData\Local\Temp\ccklnA5P.s 			page 34


 1424 0036 10BD     		pop	{r4, pc}
 1425              	.LVL119:
 1426              	.L65:
 179:Core/MyLib/Src/sx126x.c **** // Ставим в 1 бит прерывания
 1427              		.loc 1 179 1 view .LVU311
 1428              		.align	2
 1429              	.L64:
 1430 0038 00005040 		.word	1078984704
 1431              		.cfi_endproc
 1432              	.LFE85:
 1434              		.section	.text.ClearIrqStatus,"ax",%progbits
 1435              		.align	1
 1436              		.global	ClearIrqStatus
 1437              		.syntax unified
 1438              		.thumb
 1439              		.thumb_func
 1440              		.fpu softvfp
 1442              	ClearIrqStatus:
 1443              	.LVL120:
 1444              	.LFB86:
 181:Core/MyLib/Src/sx126x.c ****     uint8_t data[2] = {(param >> 8) & 0xFF, param & 0xFF};
 1445              		.loc 1 181 61 is_stmt 1 view -0
 1446              		.cfi_startproc
 1447              		@ args = 0, pretend = 0, frame = 8
 1448              		@ frame_needed = 0, uses_anonymous_args = 0
 181:Core/MyLib/Src/sx126x.c ****     uint8_t data[2] = {(param >> 8) & 0xFF, param & 0xFF};
 1449              		.loc 1 181 61 is_stmt 0 view .LVU313
 1450 0000 00B5     		push	{lr}
 1451              	.LCFI60:
 1452              		.cfi_def_cfa_offset 4
 1453              		.cfi_offset 14, -4
 1454 0002 83B0     		sub	sp, sp, #12
 1455              	.LCFI61:
 1456              		.cfi_def_cfa_offset 16
 182:Core/MyLib/Src/sx126x.c ****     sendOpcode(hspi, OPCODE_CLEAR_IRQ_STATUS, data, 2);
 1457              		.loc 1 182 5 is_stmt 1 view .LVU314
 182:Core/MyLib/Src/sx126x.c ****     sendOpcode(hspi, OPCODE_CLEAR_IRQ_STATUS, data, 2);
 1458              		.loc 1 182 13 is_stmt 0 view .LVU315
 1459 0004 0B0A     		lsrs	r3, r1, #8
 1460 0006 8DF80430 		strb	r3, [sp, #4]
 1461 000a 8DF80510 		strb	r1, [sp, #5]
 183:Core/MyLib/Src/sx126x.c **** }
 1462              		.loc 1 183 5 is_stmt 1 view .LVU316
 1463 000e 0223     		movs	r3, #2
 1464 0010 01AA     		add	r2, sp, #4
 1465 0012 1946     		mov	r1, r3
 1466              	.LVL121:
 183:Core/MyLib/Src/sx126x.c **** }
 1467              		.loc 1 183 5 is_stmt 0 view .LVU317
 1468 0014 FFF7FEFF 		bl	sendOpcode
 1469              	.LVL122:
 184:Core/MyLib/Src/sx126x.c **** // Вернуть ошибку устройства
 1470              		.loc 1 184 1 view .LVU318
 1471 0018 03B0     		add	sp, sp, #12
 1472              	.LCFI62:
 1473              		.cfi_def_cfa_offset 4
 1474              		@ sp needed
ARM GAS  C:\Users\vladk\AppData\Local\Temp\ccklnA5P.s 			page 35


 1475 001a 5DF804FB 		ldr	pc, [sp], #4
 1476              		.cfi_endproc
 1477              	.LFE86:
 1479              		.section	.text.SetDioIrqParams,"ax",%progbits
 1480              		.align	1
 1481              		.global	SetDioIrqParams
 1482              		.syntax unified
 1483              		.thumb
 1484              		.thumb_func
 1485              		.fpu softvfp
 1487              	SetDioIrqParams:
 1488              	.LVL123:
 1489              	.LFB89:
 200:Core/MyLib/Src/sx126x.c **** 
 1490              		.loc 1 200 125 is_stmt 1 view -0
 1491              		.cfi_startproc
 1492              		@ args = 4, pretend = 0, frame = 8
 1493              		@ frame_needed = 0, uses_anonymous_args = 0
 200:Core/MyLib/Src/sx126x.c **** 
 1494              		.loc 1 200 125 is_stmt 0 view .LVU320
 1495 0000 00B5     		push	{lr}
 1496              	.LCFI63:
 1497              		.cfi_def_cfa_offset 4
 1498              		.cfi_offset 14, -4
 1499 0002 83B0     		sub	sp, sp, #12
 1500              	.LCFI64:
 1501              		.cfi_def_cfa_offset 16
 1502 0004 BDF810C0 		ldrh	ip, [sp, #16]
 202:Core/MyLib/Src/sx126x.c ****     sendOpcode(hspi, OPCODE_SET_DIO_IRQ_PARAMS, data, 8);
 1503              		.loc 1 202 5 is_stmt 1 view .LVU321
 202:Core/MyLib/Src/sx126x.c ****     sendOpcode(hspi, OPCODE_SET_DIO_IRQ_PARAMS, data, 8);
 1504              		.loc 1 202 13 is_stmt 0 view .LVU322
 1505 0008 4FEA112E 		lsr	lr, r1, #8
 1506 000c 8DF800E0 		strb	lr, [sp]
 1507 0010 8DF80110 		strb	r1, [sp, #1]
 1508 0014 110A     		lsrs	r1, r2, #8
 1509              	.LVL124:
 202:Core/MyLib/Src/sx126x.c ****     sendOpcode(hspi, OPCODE_SET_DIO_IRQ_PARAMS, data, 8);
 1510              		.loc 1 202 13 view .LVU323
 1511 0016 8DF80210 		strb	r1, [sp, #2]
 1512 001a 8DF80320 		strb	r2, [sp, #3]
 1513 001e 1A0A     		lsrs	r2, r3, #8
 1514              	.LVL125:
 202:Core/MyLib/Src/sx126x.c ****     sendOpcode(hspi, OPCODE_SET_DIO_IRQ_PARAMS, data, 8);
 1515              		.loc 1 202 13 view .LVU324
 1516 0020 8DF80420 		strb	r2, [sp, #4]
 1517 0024 8DF80530 		strb	r3, [sp, #5]
 1518 0028 4FEA1C23 		lsr	r3, ip, #8
 1519              	.LVL126:
 202:Core/MyLib/Src/sx126x.c ****     sendOpcode(hspi, OPCODE_SET_DIO_IRQ_PARAMS, data, 8);
 1520              		.loc 1 202 13 view .LVU325
 1521 002c 8DF80630 		strb	r3, [sp, #6]
 1522 0030 8DF807C0 		strb	ip, [sp, #7]
 203:Core/MyLib/Src/sx126x.c **** }
 1523              		.loc 1 203 5 is_stmt 1 view .LVU326
 1524 0034 0823     		movs	r3, #8
 1525 0036 6A46     		mov	r2, sp
ARM GAS  C:\Users\vladk\AppData\Local\Temp\ccklnA5P.s 			page 36


 1526 0038 1946     		mov	r1, r3
 1527 003a FFF7FEFF 		bl	sendOpcode
 1528              	.LVL127:
 204:Core/MyLib/Src/sx126x.c **** // Передача опкода и данных
 1529              		.loc 1 204 1 is_stmt 0 view .LVU327
 1530 003e 03B0     		add	sp, sp, #12
 1531              	.LCFI65:
 1532              		.cfi_def_cfa_offset 4
 1533              		@ sp needed
 1534 0040 5DF804FB 		ldr	pc, [sp], #4
 204:Core/MyLib/Src/sx126x.c **** // Передача опкода и данных
 1535              		.loc 1 204 1 view .LVU328
 1536              		.cfi_endproc
 1537              	.LFE89:
 1539              		.section	.text.sendOpcodeAddressReadReg,"ax",%progbits
 1540              		.align	1
 1541              		.global	sendOpcodeAddressReadReg
 1542              		.syntax unified
 1543              		.thumb
 1544              		.thumb_func
 1545              		.fpu softvfp
 1547              	sendOpcodeAddressReadReg:
 1548              	.LVL128:
 1549              	.LFB91:
 213:Core/MyLib/Src/sx126x.c **** // Передача опкода и адресса для чтения из регистра
 214:Core/MyLib/Src/sx126x.c **** void sendOpcodeAddressReadReg(SPI_HandleTypeDef* hspi, uint8_t opCode, uint8_t* pData, uint16_t par
 1550              		.loc 1 214 125 is_stmt 1 view -0
 1551              		.cfi_startproc
 1552              		@ args = 4, pretend = 0, frame = 8
 1553              		@ frame_needed = 0, uses_anonymous_args = 0
 1554              		.loc 1 214 125 is_stmt 0 view .LVU330
 1555 0000 F0B5     		push	{r4, r5, r6, r7, lr}
 1556              	.LCFI66:
 1557              		.cfi_def_cfa_offset 20
 1558              		.cfi_offset 4, -20
 1559              		.cfi_offset 5, -16
 1560              		.cfi_offset 6, -12
 1561              		.cfi_offset 7, -8
 1562              		.cfi_offset 14, -4
 1563 0002 83B0     		sub	sp, sp, #12
 1564              	.LCFI67:
 1565              		.cfi_def_cfa_offset 32
 1566 0004 0446     		mov	r4, r0
 1567 0006 1546     		mov	r5, r2
 1568 0008 1E46     		mov	r6, r3
 1569 000a 8DF80710 		strb	r1, [sp, #7]
 215:Core/MyLib/Src/sx126x.c ****     uint32_t Timeout = 2;
 1570              		.loc 1 215 5 is_stmt 1 view .LVU331
 1571              	.LVL129:
 216:Core/MyLib/Src/sx126x.c ****     HAL_GPIO_WritePin(GPIOA, GPIO_PIN_3, 0);
 1572              		.loc 1 216 5 view .LVU332
 1573 000e 104F     		ldr	r7, .L72
 1574 0010 0022     		movs	r2, #0
 1575              	.LVL130:
 1576              		.loc 1 216 5 is_stmt 0 view .LVU333
 1577 0012 0821     		movs	r1, #8
 1578              	.LVL131:
ARM GAS  C:\Users\vladk\AppData\Local\Temp\ccklnA5P.s 			page 37


 1579              		.loc 1 216 5 view .LVU334
 1580 0014 3846     		mov	r0, r7
 1581              	.LVL132:
 1582              		.loc 1 216 5 view .LVU335
 1583 0016 FFF7FEFF 		bl	HAL_GPIO_WritePin
 1584              	.LVL133:
 217:Core/MyLib/Src/sx126x.c ****     HAL_SPI_Transmit(hspi, &opCode, 1, Timeout);
 1585              		.loc 1 217 5 is_stmt 1 view .LVU336
 1586 001a 0223     		movs	r3, #2
 1587 001c 0122     		movs	r2, #1
 1588 001e 0DF10701 		add	r1, sp, #7
 1589 0022 2046     		mov	r0, r4
 1590 0024 FFF7FEFF 		bl	HAL_SPI_Transmit
 1591              	.LVL134:
 218:Core/MyLib/Src/sx126x.c ****     HAL_SPI_Transmit(hspi, address, 2, Timeout);
 1592              		.loc 1 218 5 view .LVU337
 1593 0028 0223     		movs	r3, #2
 1594 002a 1A46     		mov	r2, r3
 1595 002c 0899     		ldr	r1, [sp, #32]
 1596 002e 2046     		mov	r0, r4
 1597 0030 FFF7FEFF 		bl	HAL_SPI_Transmit
 1598              	.LVL135:
 219:Core/MyLib/Src/sx126x.c ****     HAL_SPI_Receive(hspi, pData, param_len, Timeout);
 1599              		.loc 1 219 5 view .LVU338
 1600 0034 0223     		movs	r3, #2
 1601 0036 3246     		mov	r2, r6
 1602 0038 2946     		mov	r1, r5
 1603 003a 2046     		mov	r0, r4
 1604 003c FFF7FEFF 		bl	HAL_SPI_Receive
 1605              	.LVL136:
 220:Core/MyLib/Src/sx126x.c ****     HAL_GPIO_WritePin(GPIOA, GPIO_PIN_3, 1);
 1606              		.loc 1 220 5 view .LVU339
 1607 0040 0122     		movs	r2, #1
 1608 0042 0821     		movs	r1, #8
 1609 0044 3846     		mov	r0, r7
 1610 0046 FFF7FEFF 		bl	HAL_GPIO_WritePin
 1611              	.LVL137:
 221:Core/MyLib/Src/sx126x.c **** }
 1612              		.loc 1 221 1 is_stmt 0 view .LVU340
 1613 004a 03B0     		add	sp, sp, #12
 1614              	.LCFI68:
 1615              		.cfi_def_cfa_offset 20
 1616              		@ sp needed
 1617 004c F0BD     		pop	{r4, r5, r6, r7, pc}
 1618              	.LVL138:
 1619              	.L73:
 1620              		.loc 1 221 1 view .LVU341
 1621 004e 00BF     		.align	2
 1622              	.L72:
 1623 0050 00080140 		.word	1073809408
 1624              		.cfi_endproc
 1625              	.LFE91:
 1627              		.section	.text.ReadReg,"ax",%progbits
 1628              		.align	1
 1629              		.global	ReadReg
 1630              		.syntax unified
 1631              		.thumb
ARM GAS  C:\Users\vladk\AppData\Local\Temp\ccklnA5P.s 			page 38


 1632              		.thumb_func
 1633              		.fpu softvfp
 1635              	ReadReg:
 1636              	.LVL139:
 1637              	.LFB82:
 148:Core/MyLib/Src/sx126x.c ****     uint8_t addr[2];
 1638              		.loc 1 148 84 is_stmt 1 view -0
 1639              		.cfi_startproc
 1640              		@ args = 0, pretend = 0, frame = 8
 1641              		@ frame_needed = 0, uses_anonymous_args = 0
 148:Core/MyLib/Src/sx126x.c ****     uint8_t addr[2];
 1642              		.loc 1 148 84 is_stmt 0 view .LVU343
 1643 0000 00B5     		push	{lr}
 1644              	.LCFI69:
 1645              		.cfi_def_cfa_offset 4
 1646              		.cfi_offset 14, -4
 1647 0002 85B0     		sub	sp, sp, #20
 1648              	.LCFI70:
 1649              		.cfi_def_cfa_offset 24
 149:Core/MyLib/Src/sx126x.c ****     addr[0] = adress >> 8;
 1650              		.loc 1 149 5 is_stmt 1 view .LVU344
 150:Core/MyLib/Src/sx126x.c ****     addr[1] = adress & 0xFF;
 1651              		.loc 1 150 5 view .LVU345
 150:Core/MyLib/Src/sx126x.c ****     addr[1] = adress & 0xFF;
 1652              		.loc 1 150 13 is_stmt 0 view .LVU346
 1653 0004 4FEA112C 		lsr	ip, r1, #8
 1654 0008 8DF80CC0 		strb	ip, [sp, #12]
 151:Core/MyLib/Src/sx126x.c ****     sendOpcodeAddressReadReg(hspi, OPCODE_READ_REGISTER, data, len, addr);
 1655              		.loc 1 151 5 is_stmt 1 view .LVU347
 151:Core/MyLib/Src/sx126x.c ****     sendOpcodeAddressReadReg(hspi, OPCODE_READ_REGISTER, data, len, addr);
 1656              		.loc 1 151 13 is_stmt 0 view .LVU348
 1657 000c 8DF80D10 		strb	r1, [sp, #13]
 152:Core/MyLib/Src/sx126x.c **** }
 1658              		.loc 1 152 5 is_stmt 1 view .LVU349
 1659 0010 03A9     		add	r1, sp, #12
 1660              	.LVL140:
 152:Core/MyLib/Src/sx126x.c **** }
 1661              		.loc 1 152 5 is_stmt 0 view .LVU350
 1662 0012 0091     		str	r1, [sp]
 1663 0014 1D21     		movs	r1, #29
 1664 0016 FFF7FEFF 		bl	sendOpcodeAddressReadReg
 1665              	.LVL141:
 153:Core/MyLib/Src/sx126x.c **** // Определяет формат кадра
 1666              		.loc 1 153 1 view .LVU351
 1667 001a 05B0     		add	sp, sp, #20
 1668              	.LCFI71:
 1669              		.cfi_def_cfa_offset 4
 1670              		@ sp needed
 1671 001c 5DF804FB 		ldr	pc, [sp], #4
 1672              		.cfi_endproc
 1673              	.LFE82:
 1675              		.section	.text.fixLoRaBw500,"ax",%progbits
 1676              		.align	1
 1677              		.global	fixLoRaBw500
 1678              		.syntax unified
 1679              		.thumb
 1680              		.thumb_func
ARM GAS  C:\Users\vladk\AppData\Local\Temp\ccklnA5P.s 			page 39


 1681              		.fpu softvfp
 1683              	fixLoRaBw500:
 1684              	.LVL142:
 1685              	.LFB68:
  43:Core/MyLib/Src/sx126x.c ****     uint8_t packetType;
 1686              		.loc 1 43 55 is_stmt 1 view -0
 1687              		.cfi_startproc
 1688              		@ args = 0, pretend = 0, frame = 8
 1689              		@ frame_needed = 0, uses_anonymous_args = 0
  43:Core/MyLib/Src/sx126x.c ****     uint8_t packetType;
 1690              		.loc 1 43 55 is_stmt 0 view .LVU353
 1691 0000 30B5     		push	{r4, r5, lr}
 1692              	.LCFI72:
 1693              		.cfi_def_cfa_offset 12
 1694              		.cfi_offset 4, -12
 1695              		.cfi_offset 5, -8
 1696              		.cfi_offset 14, -4
 1697 0002 83B0     		sub	sp, sp, #12
 1698              	.LCFI73:
 1699              		.cfi_def_cfa_offset 24
 1700 0004 0446     		mov	r4, r0
 1701 0006 0D46     		mov	r5, r1
  44:Core/MyLib/Src/sx126x.c ****     getPacketType(hspi, &packetType);
 1702              		.loc 1 44 5 is_stmt 1 view .LVU354
  45:Core/MyLib/Src/sx126x.c ****     uint8_t value;
 1703              		.loc 1 45 5 view .LVU355
 1704 0008 0DF10701 		add	r1, sp, #7
 1705              	.LVL143:
  45:Core/MyLib/Src/sx126x.c ****     uint8_t value;
 1706              		.loc 1 45 5 is_stmt 0 view .LVU356
 1707 000c FFF7FEFF 		bl	getPacketType
 1708              	.LVL144:
  46:Core/MyLib/Src/sx126x.c ****     ReadReg(hspi, SX126X_REG_TX_MODULATION, &value, 1);
 1709              		.loc 1 46 5 is_stmt 1 view .LVU357
  47:Core/MyLib/Src/sx126x.c ****     if ((packetType == SX126X_PACKET_TYPE_LORA) && (bw == SX126X_BW_500)) value &= 0xFB;
 1710              		.loc 1 47 5 view .LVU358
 1711 0010 0123     		movs	r3, #1
 1712 0012 0DF10602 		add	r2, sp, #6
 1713 0016 40F68901 		movw	r1, #2185
 1714 001a 2046     		mov	r0, r4
 1715 001c FFF7FEFF 		bl	ReadReg
 1716              	.LVL145:
  48:Core/MyLib/Src/sx126x.c ****     else value |= 0x04;
 1717              		.loc 1 48 5 view .LVU359
  48:Core/MyLib/Src/sx126x.c ****     else value |= 0x04;
 1718              		.loc 1 48 21 is_stmt 0 view .LVU360
 1719 0020 9DF80730 		ldrb	r3, [sp, #7]	@ zero_extendqisi2
  48:Core/MyLib/Src/sx126x.c ****     else value |= 0x04;
 1720              		.loc 1 48 8 view .LVU361
 1721 0024 012B     		cmp	r3, #1
 1722 0026 0FD0     		beq	.L80
 1723              	.L77:
  49:Core/MyLib/Src/sx126x.c ****     WriteReg(hspi, SX126X_REG_TX_MODULATION, &value, 1);
 1724              		.loc 1 49 10 is_stmt 1 view .LVU362
  49:Core/MyLib/Src/sx126x.c ****     WriteReg(hspi, SX126X_REG_TX_MODULATION, &value, 1);
 1725              		.loc 1 49 16 is_stmt 0 view .LVU363
 1726 0028 9DF80630 		ldrb	r3, [sp, #6]	@ zero_extendqisi2
ARM GAS  C:\Users\vladk\AppData\Local\Temp\ccklnA5P.s 			page 40


 1727 002c 43F00403 		orr	r3, r3, #4
 1728 0030 8DF80630 		strb	r3, [sp, #6]
 1729              	.L78:
  50:Core/MyLib/Src/sx126x.c **** }
 1730              		.loc 1 50 5 is_stmt 1 view .LVU364
 1731 0034 0123     		movs	r3, #1
 1732 0036 0DF10602 		add	r2, sp, #6
 1733 003a 40F68901 		movw	r1, #2185
 1734 003e 2046     		mov	r0, r4
 1735 0040 FFF7FEFF 		bl	WriteReg
 1736              	.LVL146:
  51:Core/MyLib/Src/sx126x.c **** void getPacketType(SPI_HandleTypeDef* hspi, uint8_t* packetType){
 1737              		.loc 1 51 1 is_stmt 0 view .LVU365
 1738 0044 03B0     		add	sp, sp, #12
 1739              	.LCFI74:
 1740              		.cfi_remember_state
 1741              		.cfi_def_cfa_offset 12
 1742              		@ sp needed
 1743 0046 30BD     		pop	{r4, r5, pc}
 1744              	.LVL147:
 1745              	.L80:
 1746              	.LCFI75:
 1747              		.cfi_restore_state
  48:Core/MyLib/Src/sx126x.c ****     else value |= 0x04;
 1748              		.loc 1 48 49 discriminator 1 view .LVU366
 1749 0048 062D     		cmp	r5, #6
 1750 004a EDD1     		bne	.L77
  48:Core/MyLib/Src/sx126x.c ****     else value |= 0x04;
 1751              		.loc 1 48 75 is_stmt 1 discriminator 2 view .LVU367
  48:Core/MyLib/Src/sx126x.c ****     else value |= 0x04;
 1752              		.loc 1 48 81 is_stmt 0 discriminator 2 view .LVU368
 1753 004c 9DF80630 		ldrb	r3, [sp, #6]	@ zero_extendqisi2
 1754 0050 23F00403 		bic	r3, r3, #4
 1755 0054 8DF80630 		strb	r3, [sp, #6]
 1756 0058 ECE7     		b	.L78
 1757              		.cfi_endproc
 1758              	.LFE68:
 1760              		.section	.text.sx126x_SendData,"ax",%progbits
 1761              		.align	1
 1762              		.global	sx126x_SendData
 1763              		.syntax unified
 1764              		.thumb
 1765              		.thumb_func
 1766              		.fpu softvfp
 1768              	sx126x_SendData:
 1769              	.LVL148:
 1770              	.LFB66:
  24:Core/MyLib/Src/sx126x.c ****     uint8_t txBaseAddress = 0;
 1771              		.loc 1 24 99 is_stmt 1 view -0
 1772              		.cfi_startproc
 1773              		@ args = 0, pretend = 0, frame = 0
 1774              		@ frame_needed = 0, uses_anonymous_args = 0
  24:Core/MyLib/Src/sx126x.c ****     uint8_t txBaseAddress = 0;
 1775              		.loc 1 24 99 is_stmt 0 view .LVU370
 1776 0000 F0B5     		push	{r4, r5, r6, r7, lr}
 1777              	.LCFI76:
 1778              		.cfi_def_cfa_offset 20
ARM GAS  C:\Users\vladk\AppData\Local\Temp\ccklnA5P.s 			page 41


 1779              		.cfi_offset 4, -20
 1780              		.cfi_offset 5, -16
 1781              		.cfi_offset 6, -12
 1782              		.cfi_offset 7, -8
 1783              		.cfi_offset 14, -4
 1784 0002 83B0     		sub	sp, sp, #12
 1785              	.LCFI77:
 1786              		.cfi_def_cfa_offset 32
 1787 0004 0546     		mov	r5, r0
 1788 0006 0C46     		mov	r4, r1
 1789 0008 1646     		mov	r6, r2
 1790 000a 1F46     		mov	r7, r3
  25:Core/MyLib/Src/sx126x.c ****     uint8_t rxBaseAddress = txBaseAddress + 0xFF;
 1791              		.loc 1 25 5 is_stmt 1 view .LVU371
 1792              	.LVL149:
  26:Core/MyLib/Src/sx126x.c ****     setBufferBaseAddress(hspi, txBaseAddress, rxBaseAddress); //1
 1793              		.loc 1 26 5 view .LVU372
  27:Core/MyLib/Src/sx126x.c ****     fixLoRaBw500(hspi, modem->BandWidth); //2
 1794              		.loc 1 27 5 view .LVU373
 1795 000c FF22     		movs	r2, #255
 1796              	.LVL150:
  27:Core/MyLib/Src/sx126x.c ****     fixLoRaBw500(hspi, modem->BandWidth); //2
 1797              		.loc 1 27 5 is_stmt 0 view .LVU374
 1798 000e 0021     		movs	r1, #0
 1799              	.LVL151:
  27:Core/MyLib/Src/sx126x.c ****     fixLoRaBw500(hspi, modem->BandWidth); //2
 1800              		.loc 1 27 5 view .LVU375
 1801 0010 FFF7FEFF 		bl	setBufferBaseAddress
 1802              	.LVL152:
  28:Core/MyLib/Src/sx126x.c ****     WriteBuffer(hspi, data, data_len, &modem->bufferIndex); //3
 1803              		.loc 1 28 5 is_stmt 1 view .LVU376
 1804 0014 617B     		ldrb	r1, [r4, #13]	@ zero_extendqisi2
 1805 0016 2846     		mov	r0, r5
 1806 0018 FFF7FEFF 		bl	fixLoRaBw500
 1807              	.LVL153:
  29:Core/MyLib/Src/sx126x.c ****     SetPacketParams(hspi, modem->PreambleLen, modem->HeaderType, modem->payloadLength, modem->crcTy
 1808              		.loc 1 29 5 view .LVU377
 1809 001c 04F11903 		add	r3, r4, #25
 1810 0020 3A46     		mov	r2, r7
 1811 0022 3146     		mov	r1, r6
 1812 0024 2846     		mov	r0, r5
 1813 0026 FFF7FEFF 		bl	WriteBuffer
 1814              	.LVL154:
  30:Core/MyLib/Src/sx126x.c ****     SetTx(hspi, 1); //5
 1815              		.loc 1 30 5 view .LVU378
 1816 002a E37D     		ldrb	r3, [r4, #23]	@ zero_extendqisi2
 1817 002c 0193     		str	r3, [sp, #4]
 1818 002e A37D     		ldrb	r3, [r4, #22]	@ zero_extendqisi2
 1819 0030 0093     		str	r3, [sp]
 1820 0032 237D     		ldrb	r3, [r4, #20]	@ zero_extendqisi2
 1821 0034 627D     		ldrb	r2, [r4, #21]	@ zero_extendqisi2
 1822 0036 618A     		ldrh	r1, [r4, #18]
 1823 0038 2846     		mov	r0, r5
 1824 003a FFF7FEFF 		bl	SetPacketParams
 1825              	.LVL155:
  31:Core/MyLib/Src/sx126x.c ****     // while(!modem->IrqStatus){
 1826              		.loc 1 31 5 view .LVU379
ARM GAS  C:\Users\vladk\AppData\Local\Temp\ccklnA5P.s 			page 42


 1827 003e 0121     		movs	r1, #1
 1828 0040 2846     		mov	r0, r5
 1829 0042 FFF7FEFF 		bl	SetTx
 1830              	.LVL156:
  38:Core/MyLib/Src/sx126x.c **** // Режим состояния готовности
 1831              		.loc 1 38 1 is_stmt 0 view .LVU380
 1832 0046 03B0     		add	sp, sp, #12
 1833              	.LCFI78:
 1834              		.cfi_def_cfa_offset 20
 1835              		@ sp needed
 1836 0048 F0BD     		pop	{r4, r5, r6, r7, pc}
  38:Core/MyLib/Src/sx126x.c **** // Режим состояния готовности
 1837              		.loc 1 38 1 view .LVU381
 1838              		.cfi_endproc
 1839              	.LFE66:
 1841              		.section	.text.spiRead,"ax",%progbits
 1842              		.align	1
 1843              		.global	spiRead
 1844              		.syntax unified
 1845              		.thumb
 1846              		.thumb_func
 1847              		.fpu softvfp
 1849              	spiRead:
 1850              	.LVL157:
 1851              	.LFB92:
 222:Core/MyLib/Src/sx126x.c **** /// ???????????????????????????????
 223:Core/MyLib/Src/sx126x.c **** void spiRead(SPI_HandleTypeDef* hspi, uint8_t regAddr, uint8_t* pData){
 1852              		.loc 1 223 71 is_stmt 1 view -0
 1853              		.cfi_startproc
 1854              		@ args = 0, pretend = 0, frame = 8
 1855              		@ frame_needed = 0, uses_anonymous_args = 0
 1856              		.loc 1 223 71 is_stmt 0 view .LVU383
 1857 0000 00B5     		push	{lr}
 1858              	.LCFI79:
 1859              		.cfi_def_cfa_offset 4
 1860              		.cfi_offset 14, -4
 1861 0002 83B0     		sub	sp, sp, #12
 1862              	.LCFI80:
 1863              		.cfi_def_cfa_offset 16
 1864 0004 0B46     		mov	r3, r1
 1865 0006 1146     		mov	r1, r2
 1866              	.LVL158:
 224:Core/MyLib/Src/sx126x.c **** 	HAL_StatusTypeDef ret;
 1867              		.loc 1 224 2 is_stmt 1 view .LVU384
 225:Core/MyLib/Src/sx126x.c **** 	uint8_t address = regAddr | 0x80;
 1868              		.loc 1 225 2 view .LVU385
 1869              		.loc 1 225 10 is_stmt 0 view .LVU386
 1870 0008 43F08003 		orr	r3, r3, #128
 1871              	.LVL159:
 226:Core/MyLib/Src/sx126x.c **** 	uint8_t senddata[2] = {address, 0};
 1872              		.loc 1 226 2 is_stmt 1 view .LVU387
 1873              		.loc 1 226 10 is_stmt 0 view .LVU388
 1874 000c 8DF80430 		strb	r3, [sp, #4]
 1875 0010 0023     		movs	r3, #0
 1876              	.LVL160:
 1877              		.loc 1 226 10 view .LVU389
 1878 0012 8DF80530 		strb	r3, [sp, #5]
ARM GAS  C:\Users\vladk\AppData\Local\Temp\ccklnA5P.s 			page 43


 227:Core/MyLib/Src/sx126x.c **** 	uint8_t receivedata[2] = {0};
 1879              		.loc 1 227 2 is_stmt 1 view .LVU390
 1880              		.loc 1 227 10 is_stmt 0 view .LVU391
 1881 0016 ADF80030 		strh	r3, [sp]	@ movhi
 228:Core/MyLib/Src/sx126x.c **** 
 229:Core/MyLib/Src/sx126x.c **** 	ret = HAL_SPI_Receive(hspi, pData, 2, 20);
 1882              		.loc 1 229 2 is_stmt 1 view .LVU392
 1883              		.loc 1 229 8 is_stmt 0 view .LVU393
 1884 001a 1423     		movs	r3, #20
 1885 001c 0222     		movs	r2, #2
 1886              	.LVL161:
 1887              		.loc 1 229 8 view .LVU394
 1888 001e FFF7FEFF 		bl	HAL_SPI_Receive
 1889              	.LVL162:
 230:Core/MyLib/Src/sx126x.c **** 	if(ret != HAL_OK){
 1890              		.loc 1 230 2 is_stmt 1 view .LVU395
 231:Core/MyLib/Src/sx126x.c **** 		return ret;
 232:Core/MyLib/Src/sx126x.c **** 	}
 233:Core/MyLib/Src/sx126x.c **** 	return ret;
 234:Core/MyLib/Src/sx126x.c **** }
 1891              		.loc 1 234 1 is_stmt 0 view .LVU396
 1892 0022 03B0     		add	sp, sp, #12
 1893              	.LCFI81:
 1894              		.cfi_def_cfa_offset 4
 1895              		@ sp needed
 1896 0024 5DF804FB 		ldr	pc, [sp], #4
 1897              		.loc 1 234 1 view .LVU397
 1898              		.cfi_endproc
 1899              	.LFE92:
 1901              		.section	.rodata
 1902              		.align	2
 1903              		.set	.LANCHOR0,. + 0
 1904              	.LC0:
 1905 0000 0000     		.ascii	"\000\000"
 1906 0002 00       		.space	1
 1907 0003 00       		.space	1
 1908              	.LC1:
 1909 0004 00000000 		.ascii	"\000\000\000\000\000\000\000\000\000"
 1909      00000000 
 1909      00
 1910              		.text
 1911              	.Letext0:
 1912              		.file 2 "d:\\vscode\\arm_none_eabi\\10_2020-q4-major\\arm-none-eabi\\include\\machine\\_default_ty
 1913              		.file 3 "d:\\vscode\\arm_none_eabi\\10_2020-q4-major\\arm-none-eabi\\include\\sys\\_stdint.h"
 1914              		.file 4 "Drivers/CMSIS/Device/ST/STM32F1xx/Include/stm32f103x6.h"
 1915              		.file 5 "Drivers/STM32F1xx_HAL_Driver/Inc/stm32f1xx_hal_def.h"
 1916              		.file 6 "Drivers/STM32F1xx_HAL_Driver/Inc/stm32f1xx_hal_dma.h"
 1917              		.file 7 "Drivers/STM32F1xx_HAL_Driver/Inc/stm32f1xx_hal_spi.h"
 1918              		.file 8 "Core/MyLib/Inc/sx126x.h"
 1919              		.file 9 "Drivers/STM32F1xx_HAL_Driver/Inc/stm32f1xx_hal_gpio.h"
ARM GAS  C:\Users\vladk\AppData\Local\Temp\ccklnA5P.s 			page 44

